# SymbolsHelper-Confirmed: 5.9.1 amd64
libQt5WebEngine.so.5 libqt5webengine5 #MINVER#
 Qt_5.0@Qt_5.0 5.7.1
 Qt_5.1@Qt_5.1 5.7.1
 Qt_5.2@Qt_5.2 5.7.1
 Qt_5.3@Qt_5.3 5.7.1
 Qt_5.4@Qt_5.4 5.7.1
 Qt_5.5@Qt_5.5 5.7.1
 Qt_5.6@Qt_5.6 5.7.1
 Qt_5.7@Qt_5.7 5.7.1
 Qt_5.8@Qt_5.8 5.9.0
 Qt_5.9@Qt_5.9 5.9.0
 Qt_5@Qt_5 5.7.1
 Qt_5_PRIVATE_API@Qt_5_PRIVATE_API 5.7.1
 _ZN11QtWebEngine10initializeEv@Qt_5 5.7.1
 _ZN19QQuickWebEngineView10itemChangeEN10QQuickItem10ItemChangeERKNS0_14ItemChangeDataE@Qt_5_PRIVATE_API 5.7.1
 _ZN19QQuickWebEngineView10printToPdfERK7QStringNS_17PrintedPageSizeIdENS_22PrintedPageOrientationE@Qt_5_PRIVATE_API 5.7.1
 _ZN19QQuickWebEngineView10printToPdfERK8QJSValueNS_17PrintedPageSizeIdENS_22PrintedPageOrientationE@Qt_5_PRIVATE_API 5.7.1
 _ZN19QQuickWebEngineView10setProfileEP22QQuickWebEngineProfile@Qt_5_PRIVATE_API 5.7.1
 _ZN19QQuickWebEngineView10urlChangedEv@Qt_5_PRIVATE_API 5.7.1
 _ZN19QQuickWebEngineView10webChannelEv@Qt_5_PRIVATE_API 5.7.1
 _ZN19QQuickWebEngineView11iconChangedEv@Qt_5_PRIVATE_API 5.7.1
 _ZN19QQuickWebEngineView11linkHoveredERK4QUrl@Qt_5_PRIVATE_API 5.7.1
 _ZN19QQuickWebEngineView11qt_metacallEN11QMetaObject4CallEiPPv@Qt_5_PRIVATE_API 5.7.1
 _ZN19QQuickWebEngineView11qt_metacastEPKc@Qt_5_PRIVATE_API 5.7.1
 _ZN19QQuickWebEngineView11userScriptsEv@Qt_5_PRIVATE_API 5.7.1
 _ZN19QQuickWebEngineView12titleChangedEv@Qt_5_PRIVATE_API 5.7.1
 _ZN19QQuickWebEngineView13dragMoveEventEP14QDragMoveEvent@Qt_5_PRIVATE_API 5.7.1
 _ZN19QQuickWebEngineView13runJavaScriptERK7QStringRK8QJSValue@Qt_5_PRIVATE_API 5.7.1
 _ZN19QQuickWebEngineView13runJavaScriptERK7QStringjRK8QJSValue@Qt_5_PRIVATE_API 5.7.1
 _ZN19QQuickWebEngineView13setAudioMutedEb@Qt_5_PRIVATE_API 5.7.1
 _ZN19QQuickWebEngineView13setWebChannelEP14QQmlWebChannel@Qt_5_PRIVATE_API 5.7.1
 _ZN19QQuickWebEngineView13setZoomFactorEd@Qt_5_PRIVATE_API 5.7.1
 _ZN19QQuickWebEngineView14dragEnterEventEP15QDragEnterEvent@Qt_5_PRIVATE_API 5.7.1
 _ZN19QQuickWebEngineView14dragLeaveEventEP15QDragLeaveEvent@Qt_5_PRIVATE_API 5.7.1
 _ZN19QQuickWebEngineView14lazyInitializeEv@Qt_5_PRIVATE_API 5.7.1
 _ZN19QQuickWebEngineView14loadingChangedEP26QQuickWebEngineLoadRequest@Qt_5_PRIVATE_API 5.7.1
 _ZN19QQuickWebEngineView14profileChangedEv@Qt_5_PRIVATE_API 5.7.1
 _ZN19QQuickWebEngineView14setTestSupportEP26QQuickWebEngineTestSupport@Qt_5_PRIVATE_API 5.7.1
 _ZN19QQuickWebEngineView15geometryChangedERK6QRectFS2_@Qt_5_PRIVATE_API 5.7.1
 _ZN19QQuickWebEngineView15goBackOrForwardEi@Qt_5_PRIVATE_API 5.7.1
 _ZN19QQuickWebEngineView16certificateErrorEP31QQuickWebEngineCertificateError@Qt_5_PRIVATE_API 5.7.1
 _ZN19QQuickWebEngineView16newViewRequestedEP29QQuickWebEngineNewViewRequest@Qt_5_PRIVATE_API 5.7.1
 _ZN19QQuickWebEngineView16staticMetaObjectE@Qt_5_PRIVATE_API 5.7.1
 _ZN19QQuickWebEngineView16triggerWebActionENS_9WebActionE@Qt_5_PRIVATE_API 5.7.1
 _ZN19QQuickWebEngineView17audioMutedChangedEb@Qt_5_PRIVATE_API 5.7.1
 _ZN19QQuickWebEngineView17componentCompleteEv@Qt_5_PRIVATE_API 5.7.1
 _ZN19QQuickWebEngineView17webChannelChangedEv@Qt_5_PRIVATE_API 5.7.1
 _ZN19QQuickWebEngineView17zoomFactorChangedEd@Qt_5_PRIVATE_API 5.7.1
 _ZN19QQuickWebEngineView18setBackgroundColorERK6QColor@Qt_5_PRIVATE_API 5.7.1
 _ZN19QQuickWebEngineView18setWebChannelWorldEj@Qt_5_PRIVATE_API 5.7.1
 _ZN19QQuickWebEngineView18testSupportChangedEv@Qt_5_PRIVATE_API 5.9.0
 _ZN19QQuickWebEngineView19contentsSizeChangedERK6QSizeF@Qt_5_PRIVATE_API 5.7.1
 _ZN19QQuickWebEngineView19fileDialogRequestedEP32QQuickWebEngineFileDialogRequest@Qt_5_PRIVATE_API 5.9.0
 _ZN19QQuickWebEngineView19fullScreenCancelledEv@Qt_5_PRIVATE_API 5.7.1
 _ZN19QQuickWebEngineView19fullScreenRequestedERK32QQuickWebEngineFullScreenRequest@Qt_5_PRIVATE_API 5.7.1
 _ZN19QQuickWebEngineView19isFullScreenChangedEv@Qt_5_PRIVATE_API 5.7.1
 _ZN19QQuickWebEngineView19loadProgressChangedEv@Qt_5_PRIVATE_API 5.7.1
 _ZN19QQuickWebEngineView19navigationRequestedEP32QQuickWebEngineNavigationRequest@Qt_5_PRIVATE_API 5.7.1
 _ZN19QQuickWebEngineView19pdfPrintingFinishedERK7QStringb@Qt_5_PRIVATE_API 5.9.0
 _ZN19QQuickWebEngineView20colorDialogRequestedEP33QQuickWebEngineColorDialogRequest@Qt_5_PRIVATE_API 5.9.0
 _ZN19QQuickWebEngineView20contextMenuRequestedEP33QQuickWebEngineContextMenuRequest@Qt_5_PRIVATE_API 5.9.0
 _ZN19QQuickWebEngineView20reloadAndBypassCacheEv@Qt_5_PRIVATE_API 5.7.1
 _ZN19QQuickWebEngineView20windowCloseRequestedEv@Qt_5_PRIVATE_API 5.7.1
 _ZN19QQuickWebEngineView21replaceMisspelledWordERK7QString@Qt_5_PRIVATE_API 5.9.0
 _ZN19QQuickWebEngineView21scrollPositionChangedERK7QPointF@Qt_5_PRIVATE_API 5.7.1
 _ZN19QQuickWebEngineView21setActiveFocusOnPressEb@Qt_5_PRIVATE_API 5.7.1
 _ZN19QQuickWebEngineView22backgroundColorChangedEv@Qt_5_PRIVATE_API 5.7.1
 _ZN19QQuickWebEngineView22grantFeaturePermissionERK4QUrlNS_7FeatureEb@Qt_5_PRIVATE_API 5.7.1
 _ZN19QQuickWebEngineView22recentlyAudibleChangedEb@Qt_5_PRIVATE_API 5.7.1
 _ZN19QQuickWebEngineView22webChannelWorldChangedEj@Qt_5_PRIVATE_API 5.7.1
 _ZN19QQuickWebEngineView23renderProcessTerminatedENS_30RenderProcessTerminationStatusEi@Qt_5_PRIVATE_API 5.7.1
 _ZN19QQuickWebEngineView24javaScriptConsoleMessageENS_29JavaScriptConsoleMessageLevelERK7QStringiS3_@Qt_5_PRIVATE_API 5.7.1
 _ZN19QQuickWebEngineView25activeFocusOnPressChangedEb@Qt_5_PRIVATE_API 5.7.1
 _ZN19QQuickWebEngineView25javaScriptDialogRequestedEP38QQuickWebEngineJavaScriptDialogRequest@Qt_5_PRIVATE_API 5.9.0
 _ZN19QQuickWebEngineView26featurePermissionRequestedERK4QUrlNS_7FeatureE@Qt_5_PRIVATE_API 5.7.1
 _ZN19QQuickWebEngineView29authenticationDialogRequestedEP42QQuickWebEngineAuthenticationDialogRequest@Qt_5_PRIVATE_API 5.9.0
 _ZN19QQuickWebEngineView30formValidationMessageRequestedEP43QQuickWebEngineFormValidationMessageRequest@Qt_5_PRIVATE_API 5.9.0
 _ZN19QQuickWebEngineView4stopEv@Qt_5_PRIVATE_API 5.7.1
 _ZN19QQuickWebEngineView6goBackEv@Qt_5_PRIVATE_API 5.7.1
 _ZN19QQuickWebEngineView6reloadEv@Qt_5_PRIVATE_API 5.7.1
 _ZN19QQuickWebEngineView6setUrlERK4QUrl@Qt_5_PRIVATE_API 5.7.1
 _ZN19QQuickWebEngineView8findTextERK7QString6QFlagsINS_8FindFlagEERK8QJSValue@Qt_5_PRIVATE_API 5.7.1
 _ZN19QQuickWebEngineView8loadHtmlERK7QStringRK4QUrl@Qt_5_PRIVATE_API 5.7.1
 _ZN19QQuickWebEngineView9dropEventEP10QDropEvent@Qt_5_PRIVATE_API 5.7.1
 _ZN19QQuickWebEngineView9goForwardEv@Qt_5_PRIVATE_API 5.7.1
 _ZN19QQuickWebEngineViewC1EP10QQuickItem@Qt_5_PRIVATE_API 5.7.1
 _ZN19QQuickWebEngineViewC2EP10QQuickItem@Qt_5_PRIVATE_API 5.7.1
 _ZN19QQuickWebEngineViewD0Ev@Qt_5_PRIVATE_API 5.7.1
 _ZN19QQuickWebEngineViewD1Ev@Qt_5_PRIVATE_API 5.7.1
 _ZN19QQuickWebEngineViewD2Ev@Qt_5_PRIVATE_API 5.7.1
 _ZN21QQuickWebEngineScript10setWorldIdENS_13ScriptWorldIdE@Qt_5 5.9.0
 _ZN21QQuickWebEngineScript10timerEventEP11QTimerEvent@Qt_5 5.9.0
 _ZN21QQuickWebEngineScript11nameChangedERK7QString@Qt_5 5.9.0
 _ZN21QQuickWebEngineScript11qt_metacallEN11QMetaObject4CallEiPPv@Qt_5 5.9.0
 _ZN21QQuickWebEngineScript11qt_metacastEPKc@Qt_5 5.9.0
 _ZN21QQuickWebEngineScript12setSourceUrlERK4QUrl@Qt_5 5.9.0
 _ZN21QQuickWebEngineScript13setSourceCodeERK7QString@Qt_5 5.9.0
 _ZN21QQuickWebEngineScript14worldIdChangedENS_13ScriptWorldIdE@Qt_5 5.9.0
 _ZN21QQuickWebEngineScript16sourceUrlChangedERK4QUrl@Qt_5 5.9.0
 _ZN21QQuickWebEngineScript16staticMetaObjectE@Qt_5 5.9.0
 _ZN21QQuickWebEngineScript17setInjectionPointENS_14InjectionPointE@Qt_5 5.9.0
 _ZN21QQuickWebEngineScript17setRunOnSubframesEb@Qt_5 5.9.0
 _ZN21QQuickWebEngineScript17sourceCodeChangedERK7QString@Qt_5 5.9.0
 _ZN21QQuickWebEngineScript21injectionPointChangedENS_14InjectionPointE@Qt_5 5.9.0
 _ZN21QQuickWebEngineScript21runOnSubframesChangedEb@Qt_5 5.9.0
 _ZN21QQuickWebEngineScript7setNameERK7QString@Qt_5 5.9.0
 _ZN21QQuickWebEngineScriptC1EP7QObject@Qt_5 5.9.0
 _ZN21QQuickWebEngineScriptC2EP7QObject@Qt_5 5.9.0
 _ZN21QQuickWebEngineScriptD0Ev@Qt_5 5.9.0
 _ZN21QQuickWebEngineScriptD1Ev@Qt_5 5.9.0
 _ZN21QQuickWebEngineScriptD2Ev@Qt_5 5.9.0
 _ZN22QQuickWebEngineHistory11qt_metacallEN11QMetaObject4CallEiPPv@Qt_5_PRIVATE_API 5.7.1
 _ZN22QQuickWebEngineHistory11qt_metacastEPKc@Qt_5_PRIVATE_API 5.7.1
 _ZN22QQuickWebEngineHistory16staticMetaObjectE@Qt_5_PRIVATE_API 5.7.1
 _ZN22QQuickWebEngineHistory5resetEv@Qt_5_PRIVATE_API 5.7.1
 _ZN22QQuickWebEngineHistoryC1EP26QQuickWebEngineViewPrivate@Qt_5_PRIVATE_API 5.7.1
 _ZN22QQuickWebEngineHistoryC2EP26QQuickWebEngineViewPrivate@Qt_5_PRIVATE_API 5.7.1
 _ZN22QQuickWebEngineHistoryD0Ev@Qt_5_PRIVATE_API 5.7.1
 _ZN22QQuickWebEngineHistoryD1Ev@Qt_5_PRIVATE_API 5.7.1
 _ZN22QQuickWebEngineHistoryD2Ev@Qt_5_PRIVATE_API 5.7.1
 _ZN22QQuickWebEngineProfile11qt_metacallEN11QMetaObject4CallEiPPv@Qt_5 5.7.1
 _ZN22QQuickWebEngineProfile11qt_metacastEPKc@Qt_5 5.7.1
 _ZN22QQuickWebEngineProfile11userScriptsEv@Qt_5 5.9.0
 _ZN22QQuickWebEngineProfile12setCachePathERK7QString@Qt_5 5.7.1
 _ZN22QQuickWebEngineProfile14clearHttpCacheEv@Qt_5 5.7.1
 _ZN22QQuickWebEngineProfile14defaultProfileEv@Qt_5 5.7.1
 _ZN22QQuickWebEngineProfile14setStorageNameERK7QString@Qt_5 5.7.1
 _ZN22QQuickWebEngineProfile15removeUrlSchemeERK10QByteArray@Qt_5 5.7.1
 _ZN22QQuickWebEngineProfile15setOffTheRecordEb@Qt_5 5.7.1
 _ZN22QQuickWebEngineProfile16cachePathChangedEv@Qt_5 5.7.1
 _ZN22QQuickWebEngineProfile16downloadFinishedEP27QQuickWebEngineDownloadItem@Qt_5_PRIVATE_API 5.7.1
 _ZN22QQuickWebEngineProfile16setHttpCacheTypeENS_13HttpCacheTypeE@Qt_5 5.7.1
 _ZN22QQuickWebEngineProfile16setHttpUserAgentERK7QString@Qt_5 5.7.1
 _ZN22QQuickWebEngineProfile16staticMetaObjectE@Qt_5 5.7.1
 _ZN22QQuickWebEngineProfile17downloadRequestedEP27QQuickWebEngineDownloadItem@Qt_5_PRIVATE_API 5.7.1
 _ZN22QQuickWebEngineProfile18storageNameChangedEv@Qt_5 5.7.1
 _ZN22QQuickWebEngineProfile19offTheRecordChangedEv@Qt_5 5.7.1
 _ZN22QQuickWebEngineProfile20httpCacheTypeChangedEv@Qt_5 5.7.1
 _ZN22QQuickWebEngineProfile20httpUserAgentChangedEv@Qt_5 5.7.1
 _ZN22QQuickWebEngineProfile20setSpellCheckEnabledEb@Qt_5 5.9.0
 _ZN22QQuickWebEngineProfile21setHttpAcceptLanguageERK7QString@Qt_5 5.7.1
 _ZN22QQuickWebEngineProfile21setRequestInterceptorEP31QWebEngineUrlRequestInterceptor@Qt_5 5.7.1
 _ZN22QQuickWebEngineProfile22removeUrlSchemeHandlerEP26QWebEngineUrlSchemeHandler@Qt_5 5.7.1
 _ZN22QQuickWebEngineProfile22setSpellCheckLanguagesERK11QStringList@Qt_5 5.9.0
 _ZN22QQuickWebEngineProfile23installUrlSchemeHandlerERK10QByteArrayP26QWebEngineUrlSchemeHandler@Qt_5 5.7.1
 _ZN22QQuickWebEngineProfile23setHttpCacheMaximumSizeEi@Qt_5 5.7.1
 _ZN22QQuickWebEngineProfile24setPersistentStoragePathERK7QString@Qt_5 5.7.1
 _ZN22QQuickWebEngineProfile24spellCheckEnabledChangedEv@Qt_5 5.9.0
 _ZN22QQuickWebEngineProfile25destroyedUrlSchemeHandlerEP26QWebEngineUrlSchemeHandler@Qt_5 5.7.1
 _ZN22QQuickWebEngineProfile25httpAcceptLanguageChangedEv@Qt_5 5.7.1
 _ZN22QQuickWebEngineProfile26removeAllUrlSchemeHandlersEv@Qt_5 5.7.1
 _ZN22QQuickWebEngineProfile26setPersistentCookiesPolicyENS_23PersistentCookiesPolicyE@Qt_5 5.7.1
 _ZN22QQuickWebEngineProfile26spellCheckLanguagesChangedEv@Qt_5 5.9.0
 _ZN22QQuickWebEngineProfile27httpCacheMaximumSizeChangedEv@Qt_5 5.7.1
 _ZN22QQuickWebEngineProfile28persistentStoragePathChangedEv@Qt_5 5.7.1
 _ZN22QQuickWebEngineProfile30persistentCookiesPolicyChangedEv@Qt_5 5.7.1
 _ZN22QQuickWebEngineProfileC1EP29QQuickWebEngineProfilePrivateP7QObject@Qt_5 5.7.1
 _ZN22QQuickWebEngineProfileC1EP7QObject@Qt_5 5.7.1
 _ZN22QQuickWebEngineProfileC2EP29QQuickWebEngineProfilePrivateP7QObject@Qt_5 5.7.1
 _ZN22QQuickWebEngineProfileC2EP7QObject@Qt_5 5.7.1
 _ZN22QQuickWebEngineProfileD0Ev@Qt_5 5.7.1
 _ZN22QQuickWebEngineProfileD1Ev@Qt_5 5.7.1
 _ZN22QQuickWebEngineProfileD2Ev@Qt_5 5.7.1
 _ZN23QQuickWebEngineSettings11qt_metacallEN11QMetaObject4CallEiPPv@Qt_5_PRIVATE_API 5.7.1
 _ZN23QQuickWebEngineSettings11qt_metacastEPKc@Qt_5_PRIVATE_API 5.7.1
 _ZN23QQuickWebEngineSettings15setWebGLEnabledEb@Qt_5_PRIVATE_API 5.7.1
 _ZN23QQuickWebEngineSettings16staticMetaObjectE@Qt_5_PRIVATE_API 5.7.1
 _ZN23QQuickWebEngineSettings17setAutoLoadImagesEb@Qt_5_PRIVATE_API 5.7.1
 _ZN23QQuickWebEngineSettings17setParentSettingsEPS_@Qt_5_PRIVATE_API 5.7.1
 _ZN23QQuickWebEngineSettings17setPluginsEnabledEb@Qt_5_PRIVATE_API 5.7.1
 _ZN23QQuickWebEngineSettings19setErrorPageEnabledEb@Qt_5_PRIVATE_API 5.7.1
 _ZN23QQuickWebEngineSettings19webGLEnabledChangedEv@Qt_5_PRIVATE_API 5.7.1
 _ZN23QQuickWebEngineSettings20setJavascriptEnabledEb@Qt_5_PRIVATE_API 5.7.1
 _ZN23QQuickWebEngineSettings20setTouchIconsEnabledEb@Qt_5_PRIVATE_API 5.7.1
 _ZN23QQuickWebEngineSettings21autoLoadImagesChangedEv@Qt_5_PRIVATE_API 5.7.1
 _ZN23QQuickWebEngineSettings21pluginsEnabledChangedEv@Qt_5_PRIVATE_API 5.7.1
 _ZN23QQuickWebEngineSettings22setDefaultTextEncodingE7QString@Qt_5_PRIVATE_API 5.7.1
 _ZN23QQuickWebEngineSettings22setLocalStorageEnabledEb@Qt_5_PRIVATE_API 5.7.1
 _ZN23QQuickWebEngineSettings23errorPageEnabledChangedEv@Qt_5_PRIVATE_API 5.7.1
 _ZN23QQuickWebEngineSettings23setAutoLoadIconsForPageEb@Qt_5_PRIVATE_API 5.7.1
 _ZN23QQuickWebEngineSettings23setScreenCaptureEnabledEb@Qt_5_PRIVATE_API 5.7.1
 _ZN23QQuickWebEngineSettings24javascriptEnabledChangedEv@Qt_5_PRIVATE_API 5.7.1
 _ZN23QQuickWebEngineSettings24touchIconsEnabledChangedEv@Qt_5_PRIVATE_API 5.7.1
 _ZN23QQuickWebEngineSettings26defaultTextEncodingChangedEv@Qt_5_PRIVATE_API 5.7.1
 _ZN23QQuickWebEngineSettings26localStorageEnabledChangedEv@Qt_5_PRIVATE_API 5.7.1
 _ZN23QQuickWebEngineSettings26setPrintElementBackgroundsEb@Qt_5_PRIVATE_API 5.9.0
 _ZN23QQuickWebEngineSettings27autoLoadIconsForPageChangedEv@Qt_5_PRIVATE_API 5.7.1
 _ZN23QQuickWebEngineSettings27screenCaptureEnabledChangedEv@Qt_5_PRIVATE_API 5.7.1
 _ZN23QQuickWebEngineSettings27setFocusOnNavigationEnabledEb@Qt_5_PRIVATE_API 5.9.0
 _ZN23QQuickWebEngineSettings27setFullScreenSupportEnabledEb@Qt_5_PRIVATE_API 5.7.1
 _ZN23QQuickWebEngineSettings27setHyperlinkAuditingEnabledEb@Qt_5_PRIVATE_API 5.7.1
 _ZN23QQuickWebEngineSettings27setJavascriptCanOpenWindowsEb@Qt_5_PRIVATE_API 5.7.1
 _ZN23QQuickWebEngineSettings27setSpatialNavigationEnabledEb@Qt_5_PRIVATE_API 5.7.1
 _ZN23QQuickWebEngineSettings28setLinksIncludedInFocusChainEb@Qt_5_PRIVATE_API 5.7.1
 _ZN23QQuickWebEngineSettings29setAccelerated2dCanvasEnabledEb@Qt_5_PRIVATE_API 5.7.1
 _ZN23QQuickWebEngineSettings30printElementBackgroundsChangedEv@Qt_5_PRIVATE_API 5.9.0
 _ZN23QQuickWebEngineSettings30setAllowRunningInsecureContentEb@Qt_5_PRIVATE_API 5.9.0
 _ZN23QQuickWebEngineSettings31focusOnNavigationEnabledChangedEv@Qt_5_PRIVATE_API 5.9.0
 _ZN23QQuickWebEngineSettings31fullScreenSupportEnabledChangedEv@Qt_5_PRIVATE_API 5.7.1
 _ZN23QQuickWebEngineSettings31hyperlinkAuditingEnabledChangedEv@Qt_5_PRIVATE_API 5.7.1
 _ZN23QQuickWebEngineSettings31javascriptCanOpenWindowsChangedEv@Qt_5_PRIVATE_API 5.7.1
 _ZN23QQuickWebEngineSettings31setJavascriptCanAccessClipboardEb@Qt_5_PRIVATE_API 5.7.1
 _ZN23QQuickWebEngineSettings31spatialNavigationEnabledChangedEv@Qt_5_PRIVATE_API 5.7.1
 _ZN23QQuickWebEngineSettings32linksIncludedInFocusChainChangedEv@Qt_5_PRIVATE_API 5.7.1
 _ZN23QQuickWebEngineSettings32setLocalContentCanAccessFileUrlsEb@Qt_5_PRIVATE_API 5.7.1
 _ZN23QQuickWebEngineSettings33accelerated2dCanvasEnabledChangedEv@Qt_5_PRIVATE_API 5.7.1
 _ZN23QQuickWebEngineSettings34allowRunningInsecureContentChangedEv@Qt_5_PRIVATE_API 5.9.0
 _ZN23QQuickWebEngineSettings34setLocalContentCanAccessRemoteUrlsEb@Qt_5_PRIVATE_API 5.7.1
 _ZN23QQuickWebEngineSettings35javascriptCanAccessClipboardChangedEv@Qt_5_PRIVATE_API 5.7.1
 _ZN23QQuickWebEngineSettings36localContentCanAccessFileUrlsChangedEv@Qt_5_PRIVATE_API 5.7.1
 _ZN23QQuickWebEngineSettings36setAllowGeolocationOnInsecureOriginsEb@Qt_5_PRIVATE_API 5.9.0
 _ZN23QQuickWebEngineSettings38localContentCanAccessRemoteUrlsChangedEv@Qt_5_PRIVATE_API 5.7.1
 _ZN23QQuickWebEngineSettings40allowGeolocationOnInsecureOriginsChangedEv@Qt_5_PRIVATE_API 5.9.0
 _ZN23QQuickWebEngineSettingsC1EPS_@Qt_5_PRIVATE_API 5.7.1
 _ZN23QQuickWebEngineSettingsC2EPS_@Qt_5_PRIVATE_API 5.7.1
 _ZN23QQuickWebEngineSettingsD0Ev@Qt_5_PRIVATE_API 5.7.1
 _ZN23QQuickWebEngineSettingsD1Ev@Qt_5_PRIVATE_API 5.7.1
 _ZN23QQuickWebEngineSettingsD2Ev@Qt_5_PRIVATE_API 5.7.1
 _ZN24QQuickWebEngineErrorPage11loadStartedERK4QUrl@Qt_5_PRIVATE_API 5.7.1
 _ZN24QQuickWebEngineErrorPage11qt_metacallEN11QMetaObject4CallEiPPv@Qt_5_PRIVATE_API 5.7.1
 _ZN24QQuickWebEngineErrorPage11qt_metacastEPKc@Qt_5_PRIVATE_API 5.7.1
 _ZN24QQuickWebEngineErrorPage12loadFinishedEbRK4QUrl@Qt_5_PRIVATE_API 5.7.1
 _ZN24QQuickWebEngineErrorPage14loadingChangedEP26QQuickWebEngineLoadRequest@Qt_5_PRIVATE_API 5.7.1
 _ZN24QQuickWebEngineErrorPage16staticMetaObjectE@Qt_5_PRIVATE_API 5.7.1
 _ZN24QQuickWebEngineErrorPageC1Ev@Qt_5_PRIVATE_API 5.7.1
 _ZN24QQuickWebEngineErrorPageC2Ev@Qt_5_PRIVATE_API 5.7.1
 _ZN24QQuickWebEngineSingleton11qt_metacallEN11QMetaObject4CallEiPPv@Qt_5_PRIVATE_API 5.7.1
 _ZN24QQuickWebEngineSingleton11qt_metacastEPKc@Qt_5_PRIVATE_API 5.7.1
 _ZN24QQuickWebEngineSingleton16staticMetaObjectE@Qt_5_PRIVATE_API 5.7.1
 _ZN26QQuickWebEngineLoadRequest11qt_metacallEN11QMetaObject4CallEiPPv@Qt_5_PRIVATE_API 5.7.1
 _ZN26QQuickWebEngineLoadRequest11qt_metacastEPKc@Qt_5_PRIVATE_API 5.7.1
 _ZN26QQuickWebEngineLoadRequest16staticMetaObjectE@Qt_5_PRIVATE_API 5.7.1
 _ZN26QQuickWebEngineLoadRequestC1ERK4QUrlN19QQuickWebEngineView10LoadStatusERK7QStringiNS3_11ErrorDomainEP7QObject@Qt_5_PRIVATE_API 5.7.1
 _ZN26QQuickWebEngineLoadRequestC2ERK4QUrlN19QQuickWebEngineView10LoadStatusERK7QStringiNS3_11ErrorDomainEP7QObject@Qt_5_PRIVATE_API 5.7.1
 _ZN26QQuickWebEngineLoadRequestD0Ev@Qt_5_PRIVATE_API 5.7.1
 _ZN26QQuickWebEngineLoadRequestD1Ev@Qt_5_PRIVATE_API 5.7.1
 _ZN26QQuickWebEngineLoadRequestD2Ev@Qt_5_PRIVATE_API 5.7.1
 _ZN26QQuickWebEngineTestSupport11qt_metacallEN11QMetaObject4CallEiPPv@Qt_5_PRIVATE_API 5.7.1
 _ZN26QQuickWebEngineTestSupport11qt_metacastEPKc@Qt_5_PRIVATE_API 5.7.1
 _ZN26QQuickWebEngineTestSupport16staticMetaObjectE@Qt_5_PRIVATE_API 5.7.1
 _ZN26QQuickWebEngineTestSupport19windowCloseRejectedEv@Qt_5_PRIVATE_API 5.7.1
 _ZN26QQuickWebEngineTestSupport21loadVisuallyCommittedEv@Qt_5_PRIVATE_API 5.7.1
 _ZN26QQuickWebEngineTestSupportC1Ev@Qt_5_PRIVATE_API 5.7.1
 _ZN26QQuickWebEngineTestSupportC2Ev@Qt_5_PRIVATE_API 5.7.1
 _ZN26QQuickWebEngineViewPrivate10setProfileEP22QQuickWebEngineProfile@Qt_5_PRIVATE_API 5.7.1
 _ZN26QQuickWebEngineViewPrivate10setToolTipERK7QString@Qt_5_PRIVATE_API 5.9.0
 _ZN26QQuickWebEngineViewPrivate10urlChangedERK4QUrl@Qt_5_PRIVATE_API 5.7.1
 _ZN26QQuickWebEngineViewPrivate11didFindTextEyi@Qt_5_PRIVATE_API 5.7.1
 _ZN26QQuickWebEngineViewPrivate11iconChangedERK4QUrl@Qt_5_PRIVATE_API 5.7.1
 _ZN26QQuickWebEngineViewPrivate11loadStartedERK4QUrlb@Qt_5_PRIVATE_API 5.7.1
 _ZN26QQuickWebEngineViewPrivate11passOnFocusEb@Qt_5_PRIVATE_API 5.7.1
 _ZN26QQuickWebEngineViewPrivate12didPrintPageEyRK10QByteArray@Qt_5_PRIVATE_API 5.7.1
 _ZN26QQuickWebEngineViewPrivate12loadFinishedEbRK4QUrlbiRK7QString@Qt_5_PRIVATE_API 5.7.1
 _ZN26QQuickWebEngineViewPrivate12titleChangedERK7QString@Qt_5_PRIVATE_API 5.7.1
 _ZN26QQuickWebEngineViewPrivate13loadCommittedEv@Qt_5_PRIVATE_API 5.7.1
 _ZN26QQuickWebEngineViewPrivate13startDraggingERKN7content8DropDataE6QFlagsIN2Qt10DropActionEERK7QPixmapRK6QPoint@Qt_5_PRIVATE_API 5.7.1
 _ZN26QQuickWebEngineViewPrivate14adoptNewWindowE14QSharedPointerIN15QtWebEngineCore18WebContentsAdapterEENS1_24WebContentsAdapterClient21WindowOpenDispositionEbRK5QRectRK4QUrl@Qt_5_PRIVATE_API 5.9.1
 _ZN26QQuickWebEngineViewPrivate14focusContainerEv@Qt_5_PRIVATE_API 5.7.1
 _ZN26QQuickWebEngineViewPrivate14isBeingAdoptedEv@Qt_5_PRIVATE_API 5.7.1
 _ZN26QQuickWebEngineViewPrivate14runFileChooserE14QSharedPointerIN15QtWebEngineCore20FilePickerControllerEE@Qt_5_PRIVATE_API 5.9.0
 _ZN26QQuickWebEngineViewPrivate14userScripts_atEP16QQmlListPropertyI21QQuickWebEngineScriptEi@Qt_5_PRIVATE_API 5.7.1
 _ZN26QQuickWebEngineViewPrivate15showColorDialogE14QSharedPointerIN15QtWebEngineCore22ColorChooserControllerEE@Qt_5_PRIVATE_API 5.7.1
 _ZN26QQuickWebEngineViewPrivate16adoptWebContentsEPN15QtWebEngineCore18WebContentsAdapterE@Qt_5_PRIVATE_API 5.7.1
 _ZN26QQuickWebEngineViewPrivate16didRunJavaScriptEyRK8QVariant@Qt_5_PRIVATE_API 5.7.1
 _ZN26QQuickWebEngineViewPrivate16javascriptDialogE14QSharedPointerIN15QtWebEngineCore26JavaScriptDialogControllerEE@Qt_5_PRIVATE_API 5.7.1
 _ZN26QQuickWebEngineViewPrivate17didPrintPageToPdfERK7QStringb@Qt_5_PRIVATE_API 5.9.0
 _ZN26QQuickWebEngineViewPrivate17setFullScreenModeEb@Qt_5_PRIVATE_API 5.7.1
 _ZN26QQuickWebEngineViewPrivate17unhandledKeyEventEP9QKeyEvent@Qt_5_PRIVATE_API 5.7.1
 _ZN26QQuickWebEngineViewPrivate17userScripts_clearEP16QQmlListPropertyI21QQuickWebEngineScriptE@Qt_5_PRIVATE_API 5.7.1
 _ZN26QQuickWebEngineViewPrivate17userScripts_countEP16QQmlListPropertyI21QQuickWebEngineScriptE@Qt_5_PRIVATE_API 5.7.1
 _ZN26QQuickWebEngineViewPrivate18didUpdateTargetURLERK4QUrl@Qt_5_PRIVATE_API 5.7.1
 _ZN26QQuickWebEngineViewPrivate18updateContentsSizeERK6QSizeF@Qt_5_PRIVATE_API 5.7.1
 _ZN26QQuickWebEngineViewPrivate18userScripts_appendEP16QQmlListPropertyI21QQuickWebEngineScriptEPS1_@Qt_5_PRIVATE_API 5.7.1
 _ZN26QQuickWebEngineViewPrivate18webContentsAdapterEv@Qt_5_PRIVATE_API 5.7.1
 _ZN26QQuickWebEngineViewPrivate19loadProgressChangedEi@Qt_5_PRIVATE_API 5.7.1
 _ZN26QQuickWebEngineViewPrivate19navigationRequestedEiRK4QUrlRib@Qt_5_PRIVATE_API 5.7.1
 _ZN26QQuickWebEngineViewPrivate19setDevicePixelRatioEd@Qt_5_PRIVATE_API 5.7.1
 _ZN26QQuickWebEngineViewPrivate19windowCloseRejectedEv@Qt_5_PRIVATE_API 5.7.1
 _ZN26QQuickWebEngineViewPrivate20contextMenuRequestedERKN15QtWebEngineCore24WebEngineContextMenuDataE@Qt_5_PRIVATE_API 5.7.1
 _ZN26QQuickWebEngineViewPrivate20updateScrollPositionERK7QPointF@Qt_5_PRIVATE_API 5.7.1
 _ZN26QQuickWebEngineViewPrivate21allowCertificateErrorERK14QSharedPointerI26CertificateErrorControllerE@Qt_5_PRIVATE_API 5.7.1
 _ZN26QQuickWebEngineViewPrivate21browserContextAdapterEv@Qt_5_PRIVATE_API 5.7.1
 _ZN26QQuickWebEngineViewPrivate21ensureContentsAdapterEv@Qt_5_PRIVATE_API 5.7.1
 _ZN26QQuickWebEngineViewPrivate21hideValidationMessageEv@Qt_5_PRIVATE_API 5.7.1
 _ZN26QQuickWebEngineViewPrivate21loadVisuallyCommittedEv@Qt_5_PRIVATE_API 5.7.1
 _ZN26QQuickWebEngineViewPrivate21moveValidationMessageERK5QRect@Qt_5_PRIVATE_API 5.7.1
 _ZN26QQuickWebEngineViewPrivate21requestFullScreenModeERK4QUrlb@Qt_5_PRIVATE_API 5.7.1
 _ZN26QQuickWebEngineViewPrivate21showValidationMessageERK5QRectRK7QStringS5_@Qt_5_PRIVATE_API 5.7.1
 _ZN26QQuickWebEngineViewPrivate22authenticationRequiredE14QSharedPointerIN15QtWebEngineCore30AuthenticationDialogControllerEE@Qt_5_PRIVATE_API 5.7.1
 _ZN26QQuickWebEngineViewPrivate22recentlyAudibleChangedEb@Qt_5_PRIVATE_API 5.7.1
 _ZN26QQuickWebEngineViewPrivate23renderProcessTerminatedEN15QtWebEngineCore24WebContentsAdapterClient30RenderProcessTerminationStatusEi@Qt_5_PRIVATE_API 5.7.1
 _ZN26QQuickWebEngineViewPrivate24javaScriptConsoleMessageEN15QtWebEngineCore24WebContentsAdapterClient29JavaScriptConsoleMessageLevelERK7QStringiS5_@Qt_5_PRIVATE_API 5.7.1
 _ZN26QQuickWebEngineViewPrivate25accessibilityParentObjectEv@Qt_5_PRIVATE_API 5.7.1
 _ZN26QQuickWebEngineViewPrivate29runMouseLockPermissionRequestERK4QUrl@Qt_5_PRIVATE_API 5.7.1
 _ZN26QQuickWebEngineViewPrivate2uiEv@Qt_5_PRIVATE_API 5.7.1
 _ZN26QQuickWebEngineViewPrivate31runGeolocationPermissionRequestERK4QUrl@Qt_5_PRIVATE_API 5.7.1
 _ZN26QQuickWebEngineViewPrivate31runMediaAccessPermissionRequestERK4QUrl6QFlagsIN15QtWebEngineCore24WebContentsAdapterClient16MediaRequestFlagEE@Qt_5_PRIVATE_API 5.7.1
 _ZN26QQuickWebEngineViewPrivate36CreateRenderWidgetHostViewQtDelegateEPN15QtWebEngineCore36RenderWidgetHostViewQtDelegateClientE@Qt_5_PRIVATE_API 5.7.1
 _ZN26QQuickWebEngineViewPrivate44CreateRenderWidgetHostViewQtDelegateForPopupEPN15QtWebEngineCore36RenderWidgetHostViewQtDelegateClientE@Qt_5_PRIVATE_API 5.7.1
 _ZN26QQuickWebEngineViewPrivate5closeEv@Qt_5_PRIVATE_API 5.7.1
 _ZN26QQuickWebEngineViewPrivateC1Ev@Qt_5_PRIVATE_API 5.7.1
 _ZN26QQuickWebEngineViewPrivateC2Ev@Qt_5_PRIVATE_API 5.7.1
 _ZN26QQuickWebEngineViewPrivateD0Ev@Qt_5_PRIVATE_API 5.7.1
 _ZN26QQuickWebEngineViewPrivateD1Ev@Qt_5_PRIVATE_API 5.7.1
 _ZN26QQuickWebEngineViewPrivateD2Ev@Qt_5_PRIVATE_API 5.7.1
 _ZN27QQuickWebEngineDownloadItem11pathChangedEv@Qt_5_PRIVATE_API 5.7.1
 _ZN27QQuickWebEngineDownloadItem11qt_metacallEN11QMetaObject4CallEiPPv@Qt_5_PRIVATE_API 5.7.1
 _ZN27QQuickWebEngineDownloadItem11qt_metacastEPKc@Qt_5_PRIVATE_API 5.7.1
 _ZN27QQuickWebEngineDownloadItem11typeChangedEv@Qt_5_PRIVATE_API 5.9.0
 _ZN27QQuickWebEngineDownloadItem12stateChangedEv@Qt_5_PRIVATE_API 5.7.1
 _ZN27QQuickWebEngineDownloadItem15mimeTypeChangedEv@Qt_5_PRIVATE_API 5.7.1
 _ZN27QQuickWebEngineDownloadItem16staticMetaObjectE@Qt_5_PRIVATE_API 5.7.1
 _ZN27QQuickWebEngineDownloadItem17setSavePageFormatENS_14SavePageFormatE@Qt_5_PRIVATE_API 5.7.1
 _ZN27QQuickWebEngineDownloadItem17totalBytesChangedEv@Qt_5_PRIVATE_API 5.7.1
 _ZN27QQuickWebEngineDownloadItem20receivedBytesChangedEv@Qt_5_PRIVATE_API 5.7.1
 _ZN27QQuickWebEngineDownloadItem21savePageFormatChangedEv@Qt_5_PRIVATE_API 5.7.1
 _ZN27QQuickWebEngineDownloadItem22interruptReasonChangedEv@Qt_5_PRIVATE_API 5.9.0
 _ZN27QQuickWebEngineDownloadItem6acceptEv@Qt_5_PRIVATE_API 5.7.1
 _ZN27QQuickWebEngineDownloadItem6cancelEv@Qt_5_PRIVATE_API 5.7.1
 _ZN27QQuickWebEngineDownloadItem7setPathE7QString@Qt_5_PRIVATE_API 5.7.1
 _ZN27QQuickWebEngineDownloadItemC1EP34QQuickWebEngineDownloadItemPrivateP7QObject@Qt_5_PRIVATE_API 5.7.1
 _ZN27QQuickWebEngineDownloadItemC2EP34QQuickWebEngineDownloadItemPrivateP7QObject@Qt_5_PRIVATE_API 5.7.1
 _ZN27QQuickWebEngineDownloadItemD0Ev@Qt_5_PRIVATE_API 5.7.1
 _ZN27QQuickWebEngineDownloadItemD1Ev@Qt_5_PRIVATE_API 5.7.1
 _ZN27QQuickWebEngineDownloadItemD2Ev@Qt_5_PRIVATE_API 5.7.1
 _ZN29QQuickWebEngineNewViewRequest11qt_metacallEN11QMetaObject4CallEiPPv@Qt_5_PRIVATE_API 5.7.1
 _ZN29QQuickWebEngineNewViewRequest11qt_metacastEPKc@Qt_5_PRIVATE_API 5.7.1
 _ZN29QQuickWebEngineNewViewRequest16staticMetaObjectE@Qt_5_PRIVATE_API 5.7.1
 _ZN29QQuickWebEngineNewViewRequest6openInEP19QQuickWebEngineView@Qt_5_PRIVATE_API 5.7.1
 _ZN29QQuickWebEngineNewViewRequestC1Ev@Qt_5_PRIVATE_API 5.7.1
 _ZN29QQuickWebEngineNewViewRequestC2Ev@Qt_5_PRIVATE_API 5.7.1
 _ZN29QQuickWebEngineNewViewRequestD0Ev@Qt_5_PRIVATE_API 5.7.1
 _ZN29QQuickWebEngineNewViewRequestD1Ev@Qt_5_PRIVATE_API 5.7.1
 _ZN29QQuickWebEngineNewViewRequestD2Ev@Qt_5_PRIVATE_API 5.7.1
 _ZN30QQuickWebEngineFaviconProvider10identifierEv@Qt_5_PRIVATE_API 5.7.1
 _ZN30QQuickWebEngineFaviconProvider13requestPixmapERK7QStringP5QSizeRKS3_@Qt_5_PRIVATE_API 5.7.1
 _ZN30QQuickWebEngineFaviconProvider18faviconProviderUrlERK4QUrl@Qt_5_PRIVATE_API 5.7.1
 _ZN30QQuickWebEngineFaviconProvider6attachEP19QQuickWebEngineViewRK4QUrl@Qt_5_PRIVATE_API 5.7.1
 _ZN30QQuickWebEngineFaviconProvider6detachEP19QQuickWebEngineView@Qt_5_PRIVATE_API 5.7.1
 _ZN30QQuickWebEngineFaviconProviderC1Ev@Qt_5_PRIVATE_API 5.7.1
 _ZN30QQuickWebEngineFaviconProviderC2Ev@Qt_5_PRIVATE_API 5.7.1
 _ZN30QQuickWebEngineFaviconProviderD0Ev@Qt_5_PRIVATE_API 5.7.1
 _ZN30QQuickWebEngineFaviconProviderD1Ev@Qt_5_PRIVATE_API 5.7.1
 _ZN30QQuickWebEngineFaviconProviderD2Ev@Qt_5_PRIVATE_API 5.7.1
 _ZN31QQuickWebEngineCertificateError11qt_metacallEN11QMetaObject4CallEiPPv@Qt_5_PRIVATE_API 5.7.1
 _ZN31QQuickWebEngineCertificateError11qt_metacastEPKc@Qt_5_PRIVATE_API 5.7.1
 _ZN31QQuickWebEngineCertificateError16staticMetaObjectE@Qt_5_PRIVATE_API 5.7.1
 _ZN31QQuickWebEngineCertificateError17rejectCertificateEv@Qt_5_PRIVATE_API 5.7.1
 _ZN31QQuickWebEngineCertificateError22ignoreCertificateErrorEv@Qt_5_PRIVATE_API 5.7.1
 _ZN31QQuickWebEngineCertificateError5deferEv@Qt_5_PRIVATE_API 5.7.1
 _ZN31QQuickWebEngineCertificateErrorC1ERK14QSharedPointerI26CertificateErrorControllerEP7QObject@Qt_5_PRIVATE_API 5.7.1
 _ZN31QQuickWebEngineCertificateErrorC2ERK14QSharedPointerI26CertificateErrorControllerEP7QObject@Qt_5_PRIVATE_API 5.7.1
 _ZN31QQuickWebEngineCertificateErrorD0Ev@Qt_5_PRIVATE_API 5.7.1
 _ZN31QQuickWebEngineCertificateErrorD1Ev@Qt_5_PRIVATE_API 5.7.1
 _ZN31QQuickWebEngineCertificateErrorD2Ev@Qt_5_PRIVATE_API 5.7.1
 _ZN31QQuickWebEngineHistoryListModel11qt_metacallEN11QMetaObject4CallEiPPv@Qt_5_PRIVATE_API 5.7.1
 _ZN31QQuickWebEngineHistoryListModel11qt_metacastEPKc@Qt_5_PRIVATE_API 5.7.1
 _ZN31QQuickWebEngineHistoryListModel16staticMetaObjectE@Qt_5_PRIVATE_API 5.7.1
 _ZN31QQuickWebEngineHistoryListModel5resetEv@Qt_5_PRIVATE_API 5.7.1
 _ZN31QQuickWebEngineHistoryListModelC1EP38QQuickWebEngineHistoryListModelPrivate@Qt_5_PRIVATE_API 5.7.1
 _ZN31QQuickWebEngineHistoryListModelC1Ev@Qt_5_PRIVATE_API 5.7.1
 _ZN31QQuickWebEngineHistoryListModelC2EP38QQuickWebEngineHistoryListModelPrivate@Qt_5_PRIVATE_API 5.7.1
 _ZN31QQuickWebEngineHistoryListModelC2Ev@Qt_5_PRIVATE_API 5.7.1
 _ZN31QQuickWebEngineHistoryListModelD0Ev@Qt_5_PRIVATE_API 5.7.1
 _ZN31QQuickWebEngineHistoryListModelD1Ev@Qt_5_PRIVATE_API 5.7.1
 _ZN31QQuickWebEngineHistoryListModelD2Ev@Qt_5_PRIVATE_API 5.7.1
 _ZN32QQuickWebEngineFileDialogRequest11qt_metacallEN11QMetaObject4CallEiPPv@Qt_5_PRIVATE_API 5.9.0
 _ZN32QQuickWebEngineFileDialogRequest11qt_metacastEPKc@Qt_5_PRIVATE_API 5.9.0
 _ZN32QQuickWebEngineFileDialogRequest11setAcceptedEb@Qt_5_PRIVATE_API 5.9.0
 _ZN32QQuickWebEngineFileDialogRequest12dialogAcceptERK11QStringList@Qt_5_PRIVATE_API 5.9.0
 _ZN32QQuickWebEngineFileDialogRequest12dialogRejectEv@Qt_5_PRIVATE_API 5.9.0
 _ZN32QQuickWebEngineFileDialogRequest16staticMetaObjectE@Qt_5_PRIVATE_API 5.9.0
 _ZN32QQuickWebEngineFileDialogRequestC1E14QSharedPointerIN15QtWebEngineCore20FilePickerControllerEEP7QObject@Qt_5_PRIVATE_API 5.9.0
 _ZN32QQuickWebEngineFileDialogRequestC2E14QSharedPointerIN15QtWebEngineCore20FilePickerControllerEEP7QObject@Qt_5_PRIVATE_API 5.9.0
 _ZN32QQuickWebEngineFileDialogRequestD0Ev@Qt_5_PRIVATE_API 5.9.0
 _ZN32QQuickWebEngineFileDialogRequestD1Ev@Qt_5_PRIVATE_API 5.9.0
 _ZN32QQuickWebEngineFileDialogRequestD2Ev@Qt_5_PRIVATE_API 5.9.0
 _ZN32QQuickWebEngineFullScreenRequest16staticMetaObjectE@Qt_5_PRIVATE_API 5.7.1
 _ZN32QQuickWebEngineFullScreenRequest6acceptEv@Qt_5_PRIVATE_API 5.7.1
 _ZN32QQuickWebEngineFullScreenRequest6rejectEv@Qt_5_PRIVATE_API 5.7.1
 _ZN32QQuickWebEngineFullScreenRequestC1EP26QQuickWebEngineViewPrivateRK4QUrlb@Qt_5_PRIVATE_API 5.7.1
 _ZN32QQuickWebEngineFullScreenRequestC1Ev@Qt_5_PRIVATE_API 5.7.1
 _ZN32QQuickWebEngineFullScreenRequestC2EP26QQuickWebEngineViewPrivateRK4QUrlb@Qt_5_PRIVATE_API 5.7.1
 _ZN32QQuickWebEngineFullScreenRequestC2Ev@Qt_5_PRIVATE_API 5.7.1
 _ZN32QQuickWebEngineNavigationRequest11qt_metacallEN11QMetaObject4CallEiPPv@Qt_5_PRIVATE_API 5.7.1
 _ZN32QQuickWebEngineNavigationRequest11qt_metacastEPKc@Qt_5_PRIVATE_API 5.7.1
 _ZN32QQuickWebEngineNavigationRequest13actionChangedEv@Qt_5_PRIVATE_API 5.7.1
 _ZN32QQuickWebEngineNavigationRequest16staticMetaObjectE@Qt_5_PRIVATE_API 5.7.1
 _ZN32QQuickWebEngineNavigationRequest9setActionEN19QQuickWebEngineView23NavigationRequestActionE@Qt_5_PRIVATE_API 5.7.1
 _ZN32QQuickWebEngineNavigationRequestC1ERK4QUrlN19QQuickWebEngineView14NavigationTypeEbP7QObject@Qt_5_PRIVATE_API 5.7.1
 _ZN32QQuickWebEngineNavigationRequestC2ERK4QUrlN19QQuickWebEngineView14NavigationTypeEbP7QObject@Qt_5_PRIVATE_API 5.7.1
 _ZN32QQuickWebEngineNavigationRequestD0Ev@Qt_5_PRIVATE_API 5.7.1
 _ZN32QQuickWebEngineNavigationRequestD1Ev@Qt_5_PRIVATE_API 5.7.1
 _ZN32QQuickWebEngineNavigationRequestD2Ev@Qt_5_PRIVATE_API 5.7.1
 _ZN33QQuickWebEngineColorDialogRequest11qt_metacallEN11QMetaObject4CallEiPPv@Qt_5_PRIVATE_API 5.9.0
 _ZN33QQuickWebEngineColorDialogRequest11qt_metacastEPKc@Qt_5_PRIVATE_API 5.9.0
 _ZN33QQuickWebEngineColorDialogRequest11setAcceptedEb@Qt_5_PRIVATE_API 5.9.0
 _ZN33QQuickWebEngineColorDialogRequest12dialogAcceptERK6QColor@Qt_5_PRIVATE_API 5.9.0
 _ZN33QQuickWebEngineColorDialogRequest12dialogRejectEv@Qt_5_PRIVATE_API 5.9.0
 _ZN33QQuickWebEngineColorDialogRequest16staticMetaObjectE@Qt_5_PRIVATE_API 5.9.0
 _ZN33QQuickWebEngineColorDialogRequestC1E14QSharedPointerIN15QtWebEngineCore22ColorChooserControllerEEP7QObject@Qt_5_PRIVATE_API 5.9.0
 _ZN33QQuickWebEngineColorDialogRequestC2E14QSharedPointerIN15QtWebEngineCore22ColorChooserControllerEEP7QObject@Qt_5_PRIVATE_API 5.9.0
 _ZN33QQuickWebEngineColorDialogRequestD0Ev@Qt_5_PRIVATE_API 5.9.0
 _ZN33QQuickWebEngineColorDialogRequestD1Ev@Qt_5_PRIVATE_API 5.9.0
 _ZN33QQuickWebEngineColorDialogRequestD2Ev@Qt_5_PRIVATE_API 5.9.0
 _ZN33QQuickWebEngineContextMenuRequest11qt_metacallEN11QMetaObject4CallEiPPv@Qt_5_PRIVATE_API 5.9.0
 _ZN33QQuickWebEngineContextMenuRequest11qt_metacastEPKc@Qt_5_PRIVATE_API 5.9.0
 _ZN33QQuickWebEngineContextMenuRequest11setAcceptedEb@Qt_5_PRIVATE_API 5.9.0
 _ZN33QQuickWebEngineContextMenuRequest16staticMetaObjectE@Qt_5_PRIVATE_API 5.9.0
 _ZN33QQuickWebEngineContextMenuRequestC1ERKN15QtWebEngineCore24WebEngineContextMenuDataEP7QObject@Qt_5_PRIVATE_API 5.9.0
 _ZN33QQuickWebEngineContextMenuRequestC2ERKN15QtWebEngineCore24WebEngineContextMenuDataEP7QObject@Qt_5_PRIVATE_API 5.9.0
 _ZN33QQuickWebEngineContextMenuRequestD0Ev@Qt_5_PRIVATE_API 5.9.0
 _ZN33QQuickWebEngineContextMenuRequestD1Ev@Qt_5_PRIVATE_API 5.9.0
 _ZN33QQuickWebEngineContextMenuRequestD2Ev@Qt_5_PRIVATE_API 5.9.0
 _ZN38QQuickWebEngineJavaScriptDialogRequest11qt_metacallEN11QMetaObject4CallEiPPv@Qt_5_PRIVATE_API 5.9.0
 _ZN38QQuickWebEngineJavaScriptDialogRequest11qt_metacastEPKc@Qt_5_PRIVATE_API 5.9.0
 _ZN38QQuickWebEngineJavaScriptDialogRequest11setAcceptedEb@Qt_5_PRIVATE_API 5.9.0
 _ZN38QQuickWebEngineJavaScriptDialogRequest12dialogAcceptERK7QString@Qt_5_PRIVATE_API 5.9.0
 _ZN38QQuickWebEngineJavaScriptDialogRequest12dialogRejectEv@Qt_5_PRIVATE_API 5.9.0
 _ZN38QQuickWebEngineJavaScriptDialogRequest16staticMetaObjectE@Qt_5_PRIVATE_API 5.9.0
 _ZN38QQuickWebEngineJavaScriptDialogRequestC1E14QSharedPointerIN15QtWebEngineCore26JavaScriptDialogControllerEEP7QObject@Qt_5_PRIVATE_API 5.9.0
 _ZN38QQuickWebEngineJavaScriptDialogRequestC2E14QSharedPointerIN15QtWebEngineCore26JavaScriptDialogControllerEEP7QObject@Qt_5_PRIVATE_API 5.9.0
 _ZN38QQuickWebEngineJavaScriptDialogRequestD0Ev@Qt_5_PRIVATE_API 5.9.0
 _ZN38QQuickWebEngineJavaScriptDialogRequestD1Ev@Qt_5_PRIVATE_API 5.9.0
 _ZN38QQuickWebEngineJavaScriptDialogRequestD2Ev@Qt_5_PRIVATE_API 5.9.0
 _ZN42QQuickWebEngineAuthenticationDialogRequest11qt_metacallEN11QMetaObject4CallEiPPv@Qt_5_PRIVATE_API 5.9.0
 _ZN42QQuickWebEngineAuthenticationDialogRequest11qt_metacastEPKc@Qt_5_PRIVATE_API 5.9.0
 _ZN42QQuickWebEngineAuthenticationDialogRequest11setAcceptedEb@Qt_5_PRIVATE_API 5.9.0
 _ZN42QQuickWebEngineAuthenticationDialogRequest12dialogAcceptERK7QStringS2_@Qt_5_PRIVATE_API 5.9.0
 _ZN42QQuickWebEngineAuthenticationDialogRequest12dialogRejectEv@Qt_5_PRIVATE_API 5.9.0
 _ZN42QQuickWebEngineAuthenticationDialogRequest16staticMetaObjectE@Qt_5_PRIVATE_API 5.9.0
 _ZN42QQuickWebEngineAuthenticationDialogRequestC1E14QSharedPointerIN15QtWebEngineCore30AuthenticationDialogControllerEEP7QObject@Qt_5_PRIVATE_API 5.9.0
 _ZN42QQuickWebEngineAuthenticationDialogRequestC2E14QSharedPointerIN15QtWebEngineCore30AuthenticationDialogControllerEEP7QObject@Qt_5_PRIVATE_API 5.9.0
 _ZN42QQuickWebEngineAuthenticationDialogRequestD0Ev@Qt_5_PRIVATE_API 5.9.0
 _ZN42QQuickWebEngineAuthenticationDialogRequestD1Ev@Qt_5_PRIVATE_API 5.9.0
 _ZN42QQuickWebEngineAuthenticationDialogRequestD2Ev@Qt_5_PRIVATE_API 5.9.0
 _ZN43QQuickWebEngineFormValidationMessageRequest11qt_metacallEN11QMetaObject4CallEiPPv@Qt_5_PRIVATE_API 5.9.0
 _ZN43QQuickWebEngineFormValidationMessageRequest11qt_metacastEPKc@Qt_5_PRIVATE_API 5.9.0
 _ZN43QQuickWebEngineFormValidationMessageRequest11setAcceptedEb@Qt_5_PRIVATE_API 5.9.0
 _ZN43QQuickWebEngineFormValidationMessageRequest16staticMetaObjectE@Qt_5_PRIVATE_API 5.9.0
 _ZN43QQuickWebEngineFormValidationMessageRequestC1ENS_11RequestTypeERK5QRectRK7QStringS6_P7QObject@Qt_5_PRIVATE_API 5.9.0
 _ZN43QQuickWebEngineFormValidationMessageRequestC2ENS_11RequestTypeERK5QRectRK7QStringS6_P7QObject@Qt_5_PRIVATE_API 5.9.0
 _ZN43QQuickWebEngineFormValidationMessageRequestD0Ev@Qt_5_PRIVATE_API 5.9.0
 _ZN43QQuickWebEngineFormValidationMessageRequestD1Ev@Qt_5_PRIVATE_API 5.9.0
 _ZN43QQuickWebEngineFormValidationMessageRequestD2Ev@Qt_5_PRIVATE_API 5.9.0
 _ZNK19QQuickWebEngineView10metaObjectEv@Qt_5_PRIVATE_API 5.7.1
 _ZNK19QQuickWebEngineView10zoomFactorEv@Qt_5_PRIVATE_API 5.7.1
 _ZNK19QQuickWebEngineView11testSupportEv@Qt_5_PRIVATE_API 5.7.1
 _ZNK19QQuickWebEngineView12canGoForwardEv@Qt_5_PRIVATE_API 5.7.1
 _ZNK19QQuickWebEngineView12contentsSizeEv@Qt_5_PRIVATE_API 5.7.1
 _ZNK19QQuickWebEngineView12isAudioMutedEv@Qt_5_PRIVATE_API 5.7.1
 _ZNK19QQuickWebEngineView12isFullScreenEv@Qt_5_PRIVATE_API 5.7.1
 _ZNK19QQuickWebEngineView12loadProgressEv@Qt_5_PRIVATE_API 5.7.1
 _ZNK19QQuickWebEngineView14scrollPositionEv@Qt_5_PRIVATE_API 5.7.1
 _ZNK19QQuickWebEngineView15backgroundColorEv@Qt_5_PRIVATE_API 5.7.1
 _ZNK19QQuickWebEngineView15recentlyAudibleEv@Qt_5_PRIVATE_API 5.7.1
 _ZNK19QQuickWebEngineView15webChannelWorldEv@Qt_5_PRIVATE_API 5.7.1
 _ZNK19QQuickWebEngineView17navigationHistoryEv@Qt_5_PRIVATE_API 5.7.1
 _ZNK19QQuickWebEngineView18activeFocusOnPressEv@Qt_5_PRIVATE_API 5.7.1
 _ZNK19QQuickWebEngineView3urlEv@Qt_5_PRIVATE_API 5.7.1
 _ZNK19QQuickWebEngineView4iconEv@Qt_5_PRIVATE_API 5.7.1
 _ZNK19QQuickWebEngineView5titleEv@Qt_5_PRIVATE_API 5.7.1
 _ZNK19QQuickWebEngineView7profileEv@Qt_5_PRIVATE_API 5.7.1
 _ZNK19QQuickWebEngineView8settingsEv@Qt_5_PRIVATE_API 5.7.1
 _ZNK19QQuickWebEngineView9canGoBackEv@Qt_5_PRIVATE_API 5.7.1
 _ZNK19QQuickWebEngineView9isLoadingEv@Qt_5_PRIVATE_API 5.7.1
 _ZNK21QQuickWebEngineScript10metaObjectEv@Qt_5 5.9.0
 _ZNK21QQuickWebEngineScript10sourceCodeEv@Qt_5 5.9.0
 _ZNK21QQuickWebEngineScript14injectionPointEv@Qt_5 5.9.0
 _ZNK21QQuickWebEngineScript14runOnSubframesEv@Qt_5 5.9.0
 _ZNK21QQuickWebEngineScript4nameEv@Qt_5 5.9.0
 _ZNK21QQuickWebEngineScript7worldIdEv@Qt_5 5.9.0
 _ZNK21QQuickWebEngineScript8toStringEv@Qt_5 5.9.0
 _ZNK21QQuickWebEngineScript9sourceUrlEv@Qt_5 5.9.0
 _ZNK22QQuickWebEngineHistory10metaObjectEv@Qt_5_PRIVATE_API 5.7.1
 _ZNK22QQuickWebEngineHistory12forwardItemsEv@Qt_5_PRIVATE_API 5.7.1
 _ZNK22QQuickWebEngineHistory5itemsEv@Qt_5_PRIVATE_API 5.7.1
 _ZNK22QQuickWebEngineHistory9backItemsEv@Qt_5_PRIVATE_API 5.7.1
 _ZNK22QQuickWebEngineProfile10metaObjectEv@Qt_5 5.7.1
 _ZNK22QQuickWebEngineProfile11cookieStoreEv@Qt_5 5.7.1
 _ZNK22QQuickWebEngineProfile11storageNameEv@Qt_5 5.7.1
 _ZNK22QQuickWebEngineProfile13httpCacheTypeEv@Qt_5 5.7.1
 _ZNK22QQuickWebEngineProfile13httpUserAgentEv@Qt_5 5.7.1
 _ZNK22QQuickWebEngineProfile14isOffTheRecordEv@Qt_5 5.7.1
 _ZNK22QQuickWebEngineProfile16urlSchemeHandlerERK10QByteArray@Qt_5 5.7.1
 _ZNK22QQuickWebEngineProfile18httpAcceptLanguageEv@Qt_5 5.7.1
 _ZNK22QQuickWebEngineProfile19isSpellCheckEnabledEv@Qt_5 5.9.0
 _ZNK22QQuickWebEngineProfile19spellCheckLanguagesEv@Qt_5 5.9.0
 _ZNK22QQuickWebEngineProfile20httpCacheMaximumSizeEv@Qt_5 5.7.1
 _ZNK22QQuickWebEngineProfile21persistentStoragePathEv@Qt_5 5.7.1
 _ZNK22QQuickWebEngineProfile23persistentCookiesPolicyEv@Qt_5 5.7.1
 _ZNK22QQuickWebEngineProfile8settingsEv@Qt_5 5.7.1
 _ZNK22QQuickWebEngineProfile9cachePathEv@Qt_5 5.7.1
 _ZNK23QQuickWebEngineSettings10metaObjectEv@Qt_5_PRIVATE_API 5.7.1
 _ZNK23QQuickWebEngineSettings12webGLEnabledEv@Qt_5_PRIVATE_API 5.7.1
 _ZNK23QQuickWebEngineSettings14autoLoadImagesEv@Qt_5_PRIVATE_API 5.7.1
 _ZNK23QQuickWebEngineSettings14pluginsEnabledEv@Qt_5_PRIVATE_API 5.7.1
 _ZNK23QQuickWebEngineSettings16errorPageEnabledEv@Qt_5_PRIVATE_API 5.7.1
 _ZNK23QQuickWebEngineSettings17javascriptEnabledEv@Qt_5_PRIVATE_API 5.7.1
 _ZNK23QQuickWebEngineSettings17touchIconsEnabledEv@Qt_5_PRIVATE_API 5.7.1
 _ZNK23QQuickWebEngineSettings19defaultTextEncodingEv@Qt_5_PRIVATE_API 5.7.1
 _ZNK23QQuickWebEngineSettings19localStorageEnabledEv@Qt_5_PRIVATE_API 5.7.1
 _ZNK23QQuickWebEngineSettings20autoLoadIconsForPageEv@Qt_5_PRIVATE_API 5.7.1
 _ZNK23QQuickWebEngineSettings20screenCaptureEnabledEv@Qt_5_PRIVATE_API 5.7.1
 _ZNK23QQuickWebEngineSettings23printElementBackgroundsEv@Qt_5_PRIVATE_API 5.9.0
 _ZNK23QQuickWebEngineSettings24focusOnNavigationEnabledEv@Qt_5_PRIVATE_API 5.9.0
 _ZNK23QQuickWebEngineSettings24fullScreenSupportEnabledEv@Qt_5_PRIVATE_API 5.7.1
 _ZNK23QQuickWebEngineSettings24hyperlinkAuditingEnabledEv@Qt_5_PRIVATE_API 5.7.1
 _ZNK23QQuickWebEngineSettings24javascriptCanOpenWindowsEv@Qt_5_PRIVATE_API 5.7.1
 _ZNK23QQuickWebEngineSettings24spatialNavigationEnabledEv@Qt_5_PRIVATE_API 5.7.1
 _ZNK23QQuickWebEngineSettings25linksIncludedInFocusChainEv@Qt_5_PRIVATE_API 5.7.1
 _ZNK23QQuickWebEngineSettings26accelerated2dCanvasEnabledEv@Qt_5_PRIVATE_API 5.7.1
 _ZNK23QQuickWebEngineSettings27allowRunningInsecureContentEv@Qt_5_PRIVATE_API 5.9.0
 _ZNK23QQuickWebEngineSettings28javascriptCanAccessClipboardEv@Qt_5_PRIVATE_API 5.7.1
 _ZNK23QQuickWebEngineSettings29localContentCanAccessFileUrlsEv@Qt_5_PRIVATE_API 5.7.1
 _ZNK23QQuickWebEngineSettings31localContentCanAccessRemoteUrlsEv@Qt_5_PRIVATE_API 5.7.1
 _ZNK23QQuickWebEngineSettings33allowGeolocationOnInsecureOriginsEv@Qt_5_PRIVATE_API 5.9.0
 _ZNK24QQuickWebEngineErrorPage10metaObjectEv@Qt_5_PRIVATE_API 5.7.1
 _ZNK24QQuickWebEngineSingleton10metaObjectEv@Qt_5_PRIVATE_API 5.7.1
 _ZNK24QQuickWebEngineSingleton14defaultProfileEv@Qt_5_PRIVATE_API 5.7.1
 _ZNK24QQuickWebEngineSingleton8settingsEv@Qt_5_PRIVATE_API 5.7.1
 _ZNK26QQuickWebEngineLoadRequest10metaObjectEv@Qt_5_PRIVATE_API 5.7.1
 _ZNK26QQuickWebEngineLoadRequest11errorDomainEv@Qt_5_PRIVATE_API 5.7.1
 _ZNK26QQuickWebEngineLoadRequest11errorStringEv@Qt_5_PRIVATE_API 5.7.1
 _ZNK26QQuickWebEngineLoadRequest3urlEv@Qt_5_PRIVATE_API 5.7.1
 _ZNK26QQuickWebEngineLoadRequest6statusEv@Qt_5_PRIVATE_API 5.7.1
 _ZNK26QQuickWebEngineLoadRequest9errorCodeEv@Qt_5_PRIVATE_API 5.7.1
 _ZNK26QQuickWebEngineTestSupport10metaObjectEv@Qt_5_PRIVATE_API 5.7.1
 _ZNK26QQuickWebEngineTestSupport9errorPageEv@Qt_5_PRIVATE_API 5.7.1
 _ZNK26QQuickWebEngineViewPrivate12viewportRectEv@Qt_5_PRIVATE_API 5.7.1
 _ZNK26QQuickWebEngineViewPrivate14holdingQObjectEv@Qt_5_PRIVATE_API 5.7.1
 _ZNK26QQuickWebEngineViewPrivate15backgroundColorEv@Qt_5_PRIVATE_API 5.7.1
 _ZNK26QQuickWebEngineViewPrivate16isFullScreenModeEv@Qt_5_PRIVATE_API 5.7.1
 _ZNK26QQuickWebEngineViewPrivate17webEngineSettingsEv@Qt_5_PRIVATE_API 5.7.1
 _ZNK26QQuickWebEngineViewPrivate8dpiScaleEv@Qt_5_PRIVATE_API 5.7.1
 _ZNK26QQuickWebEngineViewPrivate9isEnabledEv@Qt_5_PRIVATE_API 5.7.1
 _ZNK27QQuickWebEngineDownloadItem10metaObjectEv@Qt_5_PRIVATE_API 5.7.1
 _ZNK27QQuickWebEngineDownloadItem10totalBytesEv@Qt_5_PRIVATE_API 5.7.1
 _ZNK27QQuickWebEngineDownloadItem13receivedBytesEv@Qt_5_PRIVATE_API 5.7.1
 _ZNK27QQuickWebEngineDownloadItem14savePageFormatEv@Qt_5_PRIVATE_API 5.7.1
 _ZNK27QQuickWebEngineDownloadItem15interruptReasonEv@Qt_5_PRIVATE_API 5.9.0
 _ZNK27QQuickWebEngineDownloadItem21interruptReasonStringEv@Qt_5_PRIVATE_API 5.9.0
 _ZNK27QQuickWebEngineDownloadItem2idEv@Qt_5_PRIVATE_API 5.7.1
 _ZNK27QQuickWebEngineDownloadItem4pathEv@Qt_5_PRIVATE_API 5.7.1
 _ZNK27QQuickWebEngineDownloadItem4typeEv@Qt_5_PRIVATE_API 5.9.0
 _ZNK27QQuickWebEngineDownloadItem5stateEv@Qt_5_PRIVATE_API 5.7.1
 _ZNK27QQuickWebEngineDownloadItem8mimeTypeEv@Qt_5_PRIVATE_API 5.7.1
 _ZNK29QQuickWebEngineNewViewRequest10metaObjectEv@Qt_5_PRIVATE_API 5.7.1
 _ZNK29QQuickWebEngineNewViewRequest11destinationEv@Qt_5_PRIVATE_API 5.7.1
 _ZNK29QQuickWebEngineNewViewRequest12requestedUrlEv@Qt_5_PRIVATE_API 5.9.0
 _ZNK29QQuickWebEngineNewViewRequest15isUserInitiatedEv@Qt_5_PRIVATE_API 5.7.1
 _ZNK30QQuickWebEngineFaviconProvider11findFitSizeERK5QListI5QSizeERKS1_S6_@Qt_5_PRIVATE_API 5.7.1
 _ZNK30QQuickWebEngineFaviconProvider14viewForIconUrlERK4QUrl@Qt_5_PRIVATE_API 5.7.1
 _ZNK31QQuickWebEngineCertificateError10metaObjectEv@Qt_5_PRIVATE_API 5.7.1
 _ZNK31QQuickWebEngineCertificateError11descriptionEv@Qt_5_PRIVATE_API 5.7.1
 _ZNK31QQuickWebEngineCertificateError11overridableEv@Qt_5_PRIVATE_API 5.7.1
 _ZNK31QQuickWebEngineCertificateError3urlEv@Qt_5_PRIVATE_API 5.7.1
 _ZNK31QQuickWebEngineCertificateError5errorEv@Qt_5_PRIVATE_API 5.7.1
 _ZNK31QQuickWebEngineCertificateError8answeredEv@Qt_5_PRIVATE_API 5.7.1
 _ZNK31QQuickWebEngineCertificateError8deferredEv@Qt_5_PRIVATE_API 5.7.1
 _ZNK31QQuickWebEngineHistoryListModel10metaObjectEv@Qt_5_PRIVATE_API 5.7.1
 _ZNK31QQuickWebEngineHistoryListModel4dataERK11QModelIndexi@Qt_5_PRIVATE_API 5.7.1
 _ZNK31QQuickWebEngineHistoryListModel8rowCountERK11QModelIndex@Qt_5_PRIVATE_API 5.7.1
 _ZNK31QQuickWebEngineHistoryListModel9roleNamesEv@Qt_5_PRIVATE_API 5.7.1
 _ZNK32QQuickWebEngineFileDialogRequest10isAcceptedEv@Qt_5_PRIVATE_API 5.9.0
 _ZNK32QQuickWebEngineFileDialogRequest10metaObjectEv@Qt_5_PRIVATE_API 5.9.0
 _ZNK32QQuickWebEngineFileDialogRequest15defaultFileNameEv@Qt_5_PRIVATE_API 5.9.0
 _ZNK32QQuickWebEngineFileDialogRequest17acceptedMimeTypesEv@Qt_5_PRIVATE_API 5.9.0
 _ZNK32QQuickWebEngineFileDialogRequest4modeEv@Qt_5_PRIVATE_API 5.9.0
 _ZNK32QQuickWebEngineNavigationRequest10metaObjectEv@Qt_5_PRIVATE_API 5.7.1
 _ZNK32QQuickWebEngineNavigationRequest11isMainFrameEv@Qt_5_PRIVATE_API 5.7.1
 _ZNK32QQuickWebEngineNavigationRequest14navigationTypeEv@Qt_5_PRIVATE_API 5.7.1
 _ZNK32QQuickWebEngineNavigationRequest3urlEv@Qt_5_PRIVATE_API 5.7.1
 _ZNK32QQuickWebEngineNavigationRequest6actionEv@Qt_5_PRIVATE_API 5.7.1
 _ZNK33QQuickWebEngineColorDialogRequest10isAcceptedEv@Qt_5_PRIVATE_API 5.9.0
 _ZNK33QQuickWebEngineColorDialogRequest10metaObjectEv@Qt_5_PRIVATE_API 5.9.0
 _ZNK33QQuickWebEngineColorDialogRequest5colorEv@Qt_5_PRIVATE_API 5.9.0
 _ZNK33QQuickWebEngineContextMenuRequest10isAcceptedEv@Qt_5_PRIVATE_API 5.9.0
 _ZNK33QQuickWebEngineContextMenuRequest10metaObjectEv@Qt_5_PRIVATE_API 5.9.0
 _ZNK33QQuickWebEngineContextMenuRequest12selectedTextEv@Qt_5_PRIVATE_API 5.9.0
 _ZNK33QQuickWebEngineContextMenuRequest14misspelledWordEv@Qt_5_PRIVATE_API 5.9.0
 _ZNK33QQuickWebEngineContextMenuRequest17isContentEditableEv@Qt_5_PRIVATE_API 5.9.0
 _ZNK33QQuickWebEngineContextMenuRequest1xEv@Qt_5_PRIVATE_API 5.9.0
 _ZNK33QQuickWebEngineContextMenuRequest1yEv@Qt_5_PRIVATE_API 5.9.0
 _ZNK33QQuickWebEngineContextMenuRequest23spellCheckerSuggestionsEv@Qt_5_PRIVATE_API 5.9.0
 _ZNK33QQuickWebEngineContextMenuRequest7linkUrlEv@Qt_5_PRIVATE_API 5.9.0
 _ZNK33QQuickWebEngineContextMenuRequest8linkTextEv@Qt_5_PRIVATE_API 5.9.0
 _ZNK33QQuickWebEngineContextMenuRequest8mediaUrlEv@Qt_5_PRIVATE_API 5.9.0
 _ZNK33QQuickWebEngineContextMenuRequest9mediaTypeEv@Qt_5_PRIVATE_API 5.9.0
 _ZNK38QQuickWebEngineJavaScriptDialogRequest10isAcceptedEv@Qt_5_PRIVATE_API 5.9.0
 _ZNK38QQuickWebEngineJavaScriptDialogRequest10metaObjectEv@Qt_5_PRIVATE_API 5.9.0
 _ZNK38QQuickWebEngineJavaScriptDialogRequest11defaultTextEv@Qt_5_PRIVATE_API 5.9.0
 _ZNK38QQuickWebEngineJavaScriptDialogRequest14securityOriginEv@Qt_5_PRIVATE_API 5.9.0
 _ZNK38QQuickWebEngineJavaScriptDialogRequest4typeEv@Qt_5_PRIVATE_API 5.9.0
 _ZNK38QQuickWebEngineJavaScriptDialogRequest5titleEv@Qt_5_PRIVATE_API 5.9.0
 _ZNK38QQuickWebEngineJavaScriptDialogRequest7messageEv@Qt_5_PRIVATE_API 5.9.0
 _ZNK42QQuickWebEngineAuthenticationDialogRequest10isAcceptedEv@Qt_5_PRIVATE_API 5.9.0
 _ZNK42QQuickWebEngineAuthenticationDialogRequest10metaObjectEv@Qt_5_PRIVATE_API 5.9.0
 _ZNK42QQuickWebEngineAuthenticationDialogRequest3urlEv@Qt_5_PRIVATE_API 5.9.0
 _ZNK42QQuickWebEngineAuthenticationDialogRequest4typeEv@Qt_5_PRIVATE_API 5.9.0
 _ZNK42QQuickWebEngineAuthenticationDialogRequest5realmEv@Qt_5_PRIVATE_API 5.9.0
 _ZNK42QQuickWebEngineAuthenticationDialogRequest9proxyHostEv@Qt_5_PRIVATE_API 5.9.0
 _ZNK43QQuickWebEngineFormValidationMessageRequest10isAcceptedEv@Qt_5_PRIVATE_API 5.9.0
 _ZNK43QQuickWebEngineFormValidationMessageRequest10metaObjectEv@Qt_5_PRIVATE_API 5.9.0
 _ZNK43QQuickWebEngineFormValidationMessageRequest4textEv@Qt_5_PRIVATE_API 5.9.0
 _ZNK43QQuickWebEngineFormValidationMessageRequest4typeEv@Qt_5_PRIVATE_API 5.9.0
 _ZNK43QQuickWebEngineFormValidationMessageRequest6anchorEv@Qt_5_PRIVATE_API 5.9.0
 _ZNK43QQuickWebEngineFormValidationMessageRequest7subTextEv@Qt_5_PRIVATE_API 5.9.0
 _ZTI19QQuickWebEngineView@Qt_5_PRIVATE_API 5.7.1
 _ZTI21QQuickWebEngineScript@Qt_5 5.9.0
 _ZTI22QQuickWebEngineHistory@Qt_5_PRIVATE_API 5.7.1
 _ZTI22QQuickWebEngineProfile@Qt_5 5.7.1
 _ZTI23QQuickWebEngineSettings@Qt_5_PRIVATE_API 5.7.1
 _ZTI24QQuickWebEngineErrorPage@Qt_5_PRIVATE_API 5.7.1
 _ZTI24QQuickWebEngineSingleton@Qt_5_PRIVATE_API 5.7.1
 _ZTI26QQuickWebEngineLoadRequest@Qt_5_PRIVATE_API 5.7.1
 _ZTI26QQuickWebEngineTestSupport@Qt_5_PRIVATE_API 5.7.1
 _ZTI26QQuickWebEngineViewPrivate@Qt_5_PRIVATE_API 5.7.1
 _ZTI27QQuickWebEngineDownloadItem@Qt_5_PRIVATE_API 5.7.1
 _ZTI29QQuickWebEngineNewViewRequest@Qt_5_PRIVATE_API 5.7.1
 _ZTI30QQuickWebEngineFaviconProvider@Qt_5_PRIVATE_API 5.7.1
 _ZTI31QQuickWebEngineCertificateError@Qt_5_PRIVATE_API 5.7.1
 _ZTI31QQuickWebEngineHistoryListModel@Qt_5_PRIVATE_API 5.7.1
 _ZTI32QQuickWebEngineFileDialogRequest@Qt_5_PRIVATE_API 5.9.0
 _ZTI32QQuickWebEngineNavigationRequest@Qt_5_PRIVATE_API 5.7.1
 _ZTI33QQuickWebEngineColorDialogRequest@Qt_5_PRIVATE_API 5.9.0
 _ZTI33QQuickWebEngineContextMenuRequest@Qt_5_PRIVATE_API 5.9.0
 _ZTI38QQuickWebEngineJavaScriptDialogRequest@Qt_5_PRIVATE_API 5.9.0
 _ZTI42QQuickWebEngineAuthenticationDialogRequest@Qt_5_PRIVATE_API 5.9.0
 _ZTI43QQuickWebEngineFormValidationMessageRequest@Qt_5_PRIVATE_API 5.9.0
 _ZTIN15QtWebEngineCore24WebContentsAdapterClientE@Qt_5 5.7.1
 _ZTIN15QtWebEngineCore27BrowserContextAdapterClientE@Qt_5 5.7.1
 _ZTIN15QtWebEngineCore30RenderWidgetHostViewQtDelegateE@Qt_5 5.7.1
 _ZTS19QQuickWebEngineView@Qt_5_PRIVATE_API 5.7.1
 _ZTS21QQuickWebEngineScript@Qt_5 5.9.0
 _ZTS22QQuickWebEngineHistory@Qt_5_PRIVATE_API 5.7.1
 _ZTS22QQuickWebEngineProfile@Qt_5 5.7.1
 _ZTS23QQuickWebEngineSettings@Qt_5_PRIVATE_API 5.7.1
 _ZTS24QQuickWebEngineErrorPage@Qt_5_PRIVATE_API 5.7.1
 _ZTS24QQuickWebEngineSingleton@Qt_5_PRIVATE_API 5.7.1
 _ZTS26QQuickWebEngineLoadRequest@Qt_5_PRIVATE_API 5.7.1
 _ZTS26QQuickWebEngineTestSupport@Qt_5_PRIVATE_API 5.7.1
 _ZTS26QQuickWebEngineViewPrivate@Qt_5_PRIVATE_API 5.7.1
 _ZTS27QQuickWebEngineDownloadItem@Qt_5_PRIVATE_API 5.7.1
 _ZTS29QQuickWebEngineNewViewRequest@Qt_5_PRIVATE_API 5.7.1
 _ZTS30QQuickWebEngineFaviconProvider@Qt_5_PRIVATE_API 5.7.1
 _ZTS31QQuickWebEngineCertificateError@Qt_5_PRIVATE_API 5.7.1
 _ZTS31QQuickWebEngineHistoryListModel@Qt_5_PRIVATE_API 5.7.1
 _ZTS32QQuickWebEngineFileDialogRequest@Qt_5_PRIVATE_API 5.9.0
 _ZTS32QQuickWebEngineNavigationRequest@Qt_5_PRIVATE_API 5.7.1
 _ZTS33QQuickWebEngineColorDialogRequest@Qt_5_PRIVATE_API 5.9.0
 _ZTS33QQuickWebEngineContextMenuRequest@Qt_5_PRIVATE_API 5.9.0
 _ZTS38QQuickWebEngineJavaScriptDialogRequest@Qt_5_PRIVATE_API 5.9.0
 _ZTS42QQuickWebEngineAuthenticationDialogRequest@Qt_5_PRIVATE_API 5.9.0
 _ZTS43QQuickWebEngineFormValidationMessageRequest@Qt_5_PRIVATE_API 5.9.0
 _ZTSN15QtWebEngineCore24WebContentsAdapterClientE@Qt_5 5.7.1
 _ZTSN15QtWebEngineCore27BrowserContextAdapterClientE@Qt_5 5.7.1
 _ZTSN15QtWebEngineCore30RenderWidgetHostViewQtDelegateE@Qt_5 5.7.1
 _ZTV19QQuickWebEngineView@Qt_5_PRIVATE_API 5.7.1
 _ZTV21QQuickWebEngineScript@Qt_5 5.9.0
 _ZTV22QQuickWebEngineHistory@Qt_5_PRIVATE_API 5.7.1
 _ZTV22QQuickWebEngineProfile@Qt_5 5.7.1
 _ZTV23QQuickWebEngineSettings@Qt_5_PRIVATE_API 5.7.1
 _ZTV24QQuickWebEngineErrorPage@Qt_5_PRIVATE_API 5.7.1
 _ZTV24QQuickWebEngineSingleton@Qt_5_PRIVATE_API 5.7.1
 _ZTV26QQuickWebEngineLoadRequest@Qt_5_PRIVATE_API 5.7.1
 _ZTV26QQuickWebEngineTestSupport@Qt_5_PRIVATE_API 5.7.1
 _ZTV26QQuickWebEngineViewPrivate@Qt_5_PRIVATE_API 5.7.1
 _ZTV27QQuickWebEngineDownloadItem@Qt_5_PRIVATE_API 5.7.1
 _ZTV29QQuickWebEngineNewViewRequest@Qt_5_PRIVATE_API 5.7.1
 _ZTV30QQuickWebEngineFaviconProvider@Qt_5_PRIVATE_API 5.7.1
 _ZTV31QQuickWebEngineCertificateError@Qt_5_PRIVATE_API 5.7.1
 _ZTV31QQuickWebEngineHistoryListModel@Qt_5_PRIVATE_API 5.7.1
 _ZTV32QQuickWebEngineFileDialogRequest@Qt_5_PRIVATE_API 5.9.0
 _ZTV32QQuickWebEngineNavigationRequest@Qt_5_PRIVATE_API 5.7.1
 _ZTV33QQuickWebEngineColorDialogRequest@Qt_5_PRIVATE_API 5.9.0
 _ZTV33QQuickWebEngineContextMenuRequest@Qt_5_PRIVATE_API 5.9.0
 _ZTV38QQuickWebEngineJavaScriptDialogRequest@Qt_5_PRIVATE_API 5.9.0
 _ZTV42QQuickWebEngineAuthenticationDialogRequest@Qt_5_PRIVATE_API 5.9.0
 _ZTV43QQuickWebEngineFormValidationMessageRequest@Qt_5_PRIVATE_API 5.9.0
 (c++)"non-virtual thunk to QQuickWebEngineHistory::~QQuickWebEngineHistory()@Qt_5_PRIVATE_API" 5.7.1
 (c++)"non-virtual thunk to QQuickWebEngineView::componentComplete()@Qt_5_PRIVATE_API" 5.7.1
 (c++)"non-virtual thunk to QQuickWebEngineView::~QQuickWebEngineView()@Qt_5_PRIVATE_API" 5.7.1
