# SymbolsHelper-Confirmed: 5.10.1 amd64
libQt5WebEngineWidgets.so.5 libqt5webenginewidgets5 #MINVER#
 Qt_5.0@Qt_5.0 5.7.1
 Qt_5.10@Qt_5.10 5.10.1
 Qt_5.1@Qt_5.1 5.7.1
 Qt_5.2@Qt_5.2 5.7.1
 Qt_5.3@Qt_5.3 5.7.1
 Qt_5.4@Qt_5.4 5.7.1
 Qt_5.5@Qt_5.5 5.7.1
 Qt_5.6@Qt_5.6 5.7.1
 Qt_5.7@Qt_5.7 5.7.1
 Qt_5.8@Qt_5.8 5.9.0
 Qt_5.9@Qt_5.9 5.9.0
 Qt_5@Qt_5 5.7.1
 Qt_5_PRIVATE_API@Qt_5_PRIVATE_API 5.7.1
 _ZN14QWebEnginePage10printToPdfERK18QWebEngineCallbackIRK10QByteArrayERK11QPageLayout@Qt_5 5.7.1
 _ZN14QWebEnginePage10printToPdfERK7QStringRK11QPageLayout@Qt_5 5.7.1
 _ZN14QWebEnginePage10setContentERK10QByteArrayRK7QStringRK4QUrl@Qt_5 5.7.1
 _ZN14QWebEnginePage10urlChangedERK4QUrl@Qt_5 5.7.1
 _ZN14QWebEnginePage11chooseFilesENS_17FileSelectionModeERK11QStringListS3_@Qt_5 5.7.1
 _ZN14QWebEnginePage11iconChangedERK5QIcon@Qt_5 5.7.1
 _ZN14QWebEnginePage11linkHoveredERK7QString@Qt_5 5.7.1
 _ZN14QWebEnginePage11loadStartedEv@Qt_5 5.7.1
 _ZN14QWebEnginePage11qt_metacallEN11QMetaObject4CallEiPPv@Qt_5 5.7.1
 _ZN14QWebEnginePage11qt_metacastEPKc@Qt_5 5.7.1
 _ZN14QWebEnginePage12createWindowENS_13WebWindowTypeE@Qt_5 5.7.1
 _ZN14QWebEnginePage12loadFinishedEb@Qt_5 5.7.1
 _ZN14QWebEnginePage12loadProgressEi@Qt_5 5.7.1
 _ZN14QWebEnginePage12titleChangedERK7QString@Qt_5 5.7.1
 _ZN14QWebEnginePage13runJavaScriptERK7QString@Qt_5 5.7.1
 _ZN14QWebEnginePage13runJavaScriptERK7QStringRK18QWebEngineCallbackIRK8QVariantE@Qt_5 5.7.1
 _ZN14QWebEnginePage13runJavaScriptERK7QStringj@Qt_5 5.7.1
 _ZN14QWebEnginePage13runJavaScriptERK7QStringjRK18QWebEngineCallbackIRK8QVariantE@Qt_5 5.7.1
 _ZN14QWebEnginePage13setAudioMutedEb@Qt_5 5.7.1
 _ZN14QWebEnginePage13setWebChannelEP11QWebChannel@Qt_5 5.7.1
 _ZN14QWebEnginePage13setWebChannelEP11QWebChannelj@Qt_5 5.7.1
 _ZN14QWebEnginePage13setZoomFactorEd@Qt_5 5.7.1
 _ZN14QWebEnginePage13triggerActionENS_9WebActionEb@Qt_5 5.7.1
 _ZN14QWebEnginePage14iconUrlChangedERK4QUrl@Qt_5 5.7.1
 _ZN14QWebEnginePage15javaScriptAlertERK4QUrlRK7QString@Qt_5 5.7.1
 _ZN14QWebEnginePage16certificateErrorERK26QWebEngineCertificateError@Qt_5 5.7.1
 _ZN14QWebEnginePage16javaScriptPromptERK4QUrlRK7QStringS5_PS3_@Qt_5 5.7.1
 _ZN14QWebEnginePage16selectionChangedEv@Qt_5 5.7.1
 _ZN14QWebEnginePage16staticMetaObjectE@Qt_5 5.7.1
 _ZN14QWebEnginePage17audioMutedChangedEb@Qt_5 5.7.1
 _ZN14QWebEnginePage17javaScriptConfirmERK4QUrlRK7QString@Qt_5 5.7.1
 _ZN14QWebEnginePage18setBackgroundColorERK6QColor@Qt_5 5.7.1
 _ZN14QWebEnginePage19contentsSizeChangedERK6QSizeF@Qt_5 5.7.1
 _ZN14QWebEnginePage19fullScreenRequestedE27QWebEngineFullScreenRequest@Qt_5 5.7.1
 _ZN14QWebEnginePage19pdfPrintingFinishedERK7QStringb@Qt_5 5.9.0
 _ZN14QWebEnginePage20setFeaturePermissionERK4QUrlNS_7FeatureENS_16PermissionPolicyE@Qt_5 5.7.1
 _ZN14QWebEnginePage20windowCloseRequestedEv@Qt_5 5.7.1
 _ZN14QWebEnginePage21replaceMisspelledWordERK7QString@Qt_5 5.9.0
 _ZN14QWebEnginePage21scrollPositionChangedERK7QPointF@Qt_5 5.7.1
 _ZN14QWebEnginePage22authenticationRequiredERK4QUrlP14QAuthenticator@Qt_5 5.7.1
 _ZN14QWebEnginePage22recentlyAudibleChangedEb@Qt_5 5.7.1
 _ZN14QWebEnginePage23acceptNavigationRequestERK4QUrlNS_14NavigationTypeEb@Qt_5 5.7.1
 _ZN14QWebEnginePage23geometryChangeRequestedERK5QRect@Qt_5 5.7.1
 _ZN14QWebEnginePage23renderProcessTerminatedENS_30RenderProcessTerminationStatusEi@Qt_5 5.7.1
 _ZN14QWebEnginePage24javaScriptConsoleMessageENS_29JavaScriptConsoleMessageLevelERK7QStringiS3_@Qt_5 5.7.1
 _ZN14QWebEnginePage25createStandardContextMenuEv@Qt_5 5.7.1
 _ZN14QWebEnginePage26featurePermissionRequestedERK4QUrlNS_7FeatureE@Qt_5 5.7.1
 _ZN14QWebEnginePage27proxyAuthenticationRequiredERK4QUrlP14QAuthenticatorRK7QString@Qt_5 5.7.1
 _ZN14QWebEnginePage32featurePermissionRequestCanceledERK4QUrlNS_7FeatureE@Qt_5 5.7.1
 _ZN14QWebEnginePage4loadERK21QWebEngineHttpRequest@Qt_5 5.9.0
 _ZN14QWebEnginePage4loadERK4QUrl@Qt_5 5.7.1
 _ZN14QWebEnginePage5eventEP6QEvent@Qt_5 5.7.1
 _ZN14QWebEnginePage5printEP8QPrinterRK18QWebEngineCallbackIbE@Qt_5 5.9.0
 _ZN14QWebEnginePage6setUrlERK4QUrl@Qt_5 5.7.1
 _ZN14QWebEnginePage7scriptsEv@Qt_5 5.7.1
 _ZN14QWebEnginePage7setHtmlERK7QStringRK4QUrl@Qt_5 5.7.1
 _ZN14QWebEnginePage7setViewEP7QWidget@Qt_5 5.7.1
 _ZN14QWebEnginePage8downloadERK4QUrlRK7QString@Qt_5 5.10.1
 _ZN14QWebEnginePage8findTextERK7QString6QFlagsINS_8FindFlagEERK18QWebEngineCallbackIbE@Qt_5 5.7.1
 _ZN14QWebEnginePageC1EP17QWebEngineProfileP7QObject@Qt_5 5.7.1
 _ZN14QWebEnginePageC1EP7QObject@Qt_5 5.7.1
 _ZN14QWebEnginePageC2EP17QWebEngineProfileP7QObject@Qt_5 5.7.1
 _ZN14QWebEnginePageC2EP7QObject@Qt_5 5.7.1
 _ZN14QWebEnginePageD0Ev@Qt_5 5.7.1
 _ZN14QWebEnginePageD1Ev@Qt_5 5.7.1
 _ZN14QWebEnginePageD2Ev@Qt_5 5.7.1
 _ZN14QWebEngineView10setContentERK10QByteArrayRK7QStringRK4QUrl@Qt_5 5.7.1
 _ZN14QWebEngineView10urlChangedERK4QUrl@Qt_5 5.7.1
 _ZN14QWebEngineView11iconChangedERK5QIcon@Qt_5 5.7.1
 _ZN14QWebEngineView11loadStartedEv@Qt_5 5.7.1
 _ZN14QWebEngineView11qt_metacallEN11QMetaObject4CallEiPPv@Qt_5 5.7.1
 _ZN14QWebEngineView11qt_metacastEPKc@Qt_5 5.7.1
 _ZN14QWebEngineView12createWindowEN14QWebEnginePage13WebWindowTypeE@Qt_5 5.7.1
 _ZN14QWebEngineView12loadFinishedEb@Qt_5 5.7.1
 _ZN14QWebEngineView12loadProgressEi@Qt_5 5.7.1
 _ZN14QWebEngineView12titleChangedERK7QString@Qt_5 5.7.1
 _ZN14QWebEngineView13dragMoveEventEP14QDragMoveEvent@Qt_5 5.7.1
 _ZN14QWebEngineView13setZoomFactorEd@Qt_5 5.7.1
 _ZN14QWebEngineView14dragEnterEventEP15QDragEnterEvent@Qt_5 5.7.1
 _ZN14QWebEngineView14dragLeaveEventEP15QDragLeaveEvent@Qt_5 5.7.1
 _ZN14QWebEngineView14iconUrlChangedERK4QUrl@Qt_5 5.7.1
 _ZN14QWebEngineView16contextMenuEventEP17QContextMenuEvent@Qt_5 5.7.1
 _ZN14QWebEngineView16selectionChangedEv@Qt_5 5.7.1
 _ZN14QWebEngineView16staticMetaObjectE@Qt_5 5.7.1
 _ZN14QWebEngineView17triggerPageActionEN14QWebEnginePage9WebActionEb@Qt_5 5.7.1
 _ZN14QWebEngineView23renderProcessTerminatedEN14QWebEnginePage30RenderProcessTerminationStatusEi@Qt_5 5.7.1
 _ZN14QWebEngineView4backEv@Qt_5 5.7.1
 _ZN14QWebEngineView4loadERK21QWebEngineHttpRequest@Qt_5 5.9.0
 _ZN14QWebEngineView4loadERK4QUrl@Qt_5 5.7.1
 _ZN14QWebEngineView4stopEv@Qt_5 5.7.1
 _ZN14QWebEngineView5eventEP6QEvent@Qt_5 5.7.1
 _ZN14QWebEngineView6reloadEv@Qt_5 5.7.1
 _ZN14QWebEngineView6setUrlERK4QUrl@Qt_5 5.7.1
 _ZN14QWebEngineView7forwardEv@Qt_5 5.7.1
 _ZN14QWebEngineView7setHtmlERK7QStringRK4QUrl@Qt_5 5.7.1
 _ZN14QWebEngineView7setPageEP14QWebEnginePage@Qt_5 5.7.1
 _ZN14QWebEngineView8findTextERK7QString6QFlagsIN14QWebEnginePage8FindFlagEERK18QWebEngineCallbackIbE@Qt_5 5.7.1
 _ZN14QWebEngineView9dropEventEP10QDropEvent@Qt_5 5.7.1
 _ZN14QWebEngineView9hideEventEP10QHideEvent@Qt_5 5.7.1
 _ZN14QWebEngineView9showEventEP10QShowEvent@Qt_5 5.7.1
 _ZN14QWebEngineViewC1EP7QWidget@Qt_5 5.7.1
 _ZN14QWebEngineViewC2EP7QWidget@Qt_5 5.7.1
 _ZN14QWebEngineViewD0Ev@Qt_5 5.7.1
 _ZN14QWebEngineViewD1Ev@Qt_5 5.7.1
 _ZN14QWebEngineViewD2Ev@Qt_5 5.7.1
 _ZN16QWebEngineScript10setWorldIdEj@Qt_5 5.7.1
 _ZN16QWebEngineScript13setSourceCodeERK7QString@Qt_5 5.7.1
 _ZN16QWebEngineScript17setInjectionPointENS_14InjectionPointE@Qt_5 5.7.1
 _ZN16QWebEngineScript18setRunsOnSubFramesEb@Qt_5 5.7.1
 _ZN16QWebEngineScript7setNameERK7QString@Qt_5 5.7.1
 _ZN16QWebEngineScriptC1ERKN15QtWebEngineCore10UserScriptE@Qt_5 5.7.1
 _ZN16QWebEngineScriptC1ERKS_@Qt_5 5.7.1
 _ZN16QWebEngineScriptC1Ev@Qt_5 5.7.1
 _ZN16QWebEngineScriptC2ERKN15QtWebEngineCore10UserScriptE@Qt_5 5.7.1
 _ZN16QWebEngineScriptC2ERKS_@Qt_5 5.7.1
 _ZN16QWebEngineScriptC2Ev@Qt_5 5.7.1
 _ZN16QWebEngineScriptD1Ev@Qt_5 5.7.1
 _ZN16QWebEngineScriptD2Ev@Qt_5 5.7.1
 _ZN16QWebEngineScriptaSERKS_@Qt_5 5.7.1
 _ZN17QWebEngineHistory4backEv@Qt_5 5.7.1
 _ZN17QWebEngineHistory5clearEv@Qt_5 5.7.1
 _ZN17QWebEngineHistory7forwardEv@Qt_5 5.7.1
 _ZN17QWebEngineHistory8goToItemERK21QWebEngineHistoryItem@Qt_5 5.7.1
 _ZN17QWebEngineHistoryC1EP24QWebEngineHistoryPrivate@Qt_5 5.7.1
 _ZN17QWebEngineHistoryC2EP24QWebEngineHistoryPrivate@Qt_5 5.7.1
 _ZN17QWebEngineHistoryD1Ev@Qt_5 5.7.1
 _ZN17QWebEngineHistoryD2Ev@Qt_5 5.7.1
 _ZN17QWebEngineProfile11cookieStoreEv@Qt_5 5.7.1
 _ZN17QWebEngineProfile11qt_metacallEN11QMetaObject4CallEiPPv@Qt_5 5.7.1
 _ZN17QWebEngineProfile11qt_metacastEPKc@Qt_5 5.7.1
 _ZN17QWebEngineProfile12setCachePathERK7QString@Qt_5 5.7.1
 _ZN17QWebEngineProfile14clearHttpCacheEv@Qt_5 5.7.1
 _ZN17QWebEngineProfile14defaultProfileEv@Qt_5 5.7.1
 _ZN17QWebEngineProfile15removeUrlSchemeERK10QByteArray@Qt_5 5.7.1
 _ZN17QWebEngineProfile16setHttpCacheTypeENS_13HttpCacheTypeE@Qt_5 5.7.1
 _ZN17QWebEngineProfile16setHttpUserAgentERK7QString@Qt_5 5.7.1
 _ZN17QWebEngineProfile16staticMetaObjectE@Qt_5 5.7.1
 _ZN17QWebEngineProfile17clearVisitedLinksERK5QListI4QUrlE@Qt_5 5.7.1
 _ZN17QWebEngineProfile17downloadRequestedEP22QWebEngineDownloadItem@Qt_5 5.7.1
 _ZN17QWebEngineProfile20clearAllVisitedLinksEv@Qt_5 5.7.1
 _ZN17QWebEngineProfile20setSpellCheckEnabledEb@Qt_5 5.9.0
 _ZN17QWebEngineProfile21setHttpAcceptLanguageERK7QString@Qt_5 5.7.1
 _ZN17QWebEngineProfile21setRequestInterceptorEP31QWebEngineUrlRequestInterceptor@Qt_5 5.7.1
 _ZN17QWebEngineProfile22removeUrlSchemeHandlerEP26QWebEngineUrlSchemeHandler@Qt_5 5.7.1
 _ZN17QWebEngineProfile22setSpellCheckLanguagesERK11QStringList@Qt_5 5.9.0
 _ZN17QWebEngineProfile23installUrlSchemeHandlerERK10QByteArrayP26QWebEngineUrlSchemeHandler@Qt_5 5.7.1
 _ZN17QWebEngineProfile23setHttpCacheMaximumSizeEi@Qt_5 5.7.1
 _ZN17QWebEngineProfile24setPersistentStoragePathERK7QString@Qt_5 5.7.1
 _ZN17QWebEngineProfile25destroyedUrlSchemeHandlerEP26QWebEngineUrlSchemeHandler@Qt_5 5.7.1
 _ZN17QWebEngineProfile26removeAllUrlSchemeHandlersEv@Qt_5 5.7.1
 _ZN17QWebEngineProfile26setPersistentCookiesPolicyENS_23PersistentCookiesPolicyE@Qt_5 5.7.1
 _ZN17QWebEngineProfileC1EP24QWebEngineProfilePrivateP7QObject@Qt_5 5.7.1
 _ZN17QWebEngineProfileC1EP7QObject@Qt_5 5.7.1
 _ZN17QWebEngineProfileC1ERK7QStringP7QObject@Qt_5 5.7.1
 _ZN17QWebEngineProfileC2EP24QWebEngineProfilePrivateP7QObject@Qt_5 5.7.1
 _ZN17QWebEngineProfileC2EP7QObject@Qt_5 5.7.1
 _ZN17QWebEngineProfileC2ERK7QStringP7QObject@Qt_5 5.7.1
 _ZN17QWebEngineProfileD0Ev@Qt_5 5.7.1
 _ZN17QWebEngineProfileD1Ev@Qt_5 5.7.1
 _ZN17QWebEngineProfileD2Ev@Qt_5 5.7.1
 _ZN18QWebEngineSettings11setFontSizeENS_8FontSizeEi@Qt_5 5.7.1
 _ZN18QWebEngineSettings12setAttributeENS_12WebAttributeEb@Qt_5 5.7.1
 _ZN18QWebEngineSettings13resetFontSizeENS_8FontSizeE@Qt_5 5.7.1
 _ZN18QWebEngineSettings13setFontFamilyENS_10FontFamilyERK7QString@Qt_5 5.7.1
 _ZN18QWebEngineSettings14globalSettingsEv@Qt_5 5.7.1
 _ZN18QWebEngineSettings14resetAttributeENS_12WebAttributeE@Qt_5 5.7.1
 _ZN18QWebEngineSettings15defaultSettingsEv@Qt_5 5.7.1
 _ZN18QWebEngineSettings15resetFontFamilyENS_10FontFamilyE@Qt_5 5.7.1
 _ZN18QWebEngineSettings22setDefaultTextEncodingERK7QString@Qt_5 5.7.1
 _ZN18QWebEngineSettingsC1EPS_@Qt_5 5.7.1
 _ZN18QWebEngineSettingsC2EPS_@Qt_5 5.7.1
 _ZN18QWebEngineSettingsD1Ev@Qt_5 5.7.1
 _ZN18QWebEngineSettingsD2Ev@Qt_5 5.7.1
 _ZN21QWebEngineHistoryItemC1EP28QWebEngineHistoryItemPrivate@Qt_5 5.7.1
 _ZN21QWebEngineHistoryItemC1ERKS_@Qt_5 5.7.1
 _ZN21QWebEngineHistoryItemC2EP28QWebEngineHistoryItemPrivate@Qt_5 5.7.1
 _ZN21QWebEngineHistoryItemC2ERKS_@Qt_5 5.7.1
 _ZN21QWebEngineHistoryItemD1Ev@Qt_5 5.7.1
 _ZN21QWebEngineHistoryItemD2Ev@Qt_5 5.7.1
 _ZN21QWebEngineHistoryItemaSERKS_@Qt_5 5.7.1
 _ZN22QWebEngineDownloadItem11qt_metacallEN11QMetaObject4CallEiPPv@Qt_5 5.7.1
 _ZN22QWebEngineDownloadItem11qt_metacastEPKc@Qt_5 5.7.1
 _ZN22QWebEngineDownloadItem12stateChangedENS_13DownloadStateE@Qt_5 5.7.1
 _ZN22QWebEngineDownloadItem15isPausedChangedEb@Qt_5 5.10.1
 _ZN22QWebEngineDownloadItem16downloadProgressExx@Qt_5 5.7.1
 _ZN22QWebEngineDownloadItem16staticMetaObjectE@Qt_5 5.7.1
 _ZN22QWebEngineDownloadItem17setSavePageFormatENS_14SavePageFormatE@Qt_5 5.7.1
 _ZN22QWebEngineDownloadItem5pauseEv@Qt_5 5.10.1
 _ZN22QWebEngineDownloadItem6acceptEv@Qt_5 5.7.1
 _ZN22QWebEngineDownloadItem6cancelEv@Qt_5 5.7.1
 _ZN22QWebEngineDownloadItem6resumeEv@Qt_5 5.10.1
 _ZN22QWebEngineDownloadItem7setPathE7QString@Qt_5 5.7.1
 _ZN22QWebEngineDownloadItem8finishedEv@Qt_5 5.7.1
 _ZN22QWebEngineDownloadItemC1EP29QWebEngineDownloadItemPrivateP7QObject@Qt_5 5.7.1
 _ZN22QWebEngineDownloadItemC2EP29QWebEngineDownloadItemPrivateP7QObject@Qt_5 5.7.1
 _ZN22QWebEngineDownloadItemD0Ev@Qt_5 5.7.1
 _ZN22QWebEngineDownloadItemD1Ev@Qt_5 5.7.1
 _ZN22QWebEngineDownloadItemD2Ev@Qt_5 5.7.1
 _ZN25QWebEngineContextMenuData5resetEv@Qt_5 5.7.1
 _ZN25QWebEngineContextMenuDataC1ERKS_@Qt_5 5.7.1
 _ZN25QWebEngineContextMenuDataC1Ev@Qt_5 5.7.1
 _ZN25QWebEngineContextMenuDataC2ERKS_@Qt_5 5.7.1
 _ZN25QWebEngineContextMenuDataC2Ev@Qt_5 5.7.1
 _ZN25QWebEngineContextMenuDataD1Ev@Qt_5 5.7.1
 _ZN25QWebEngineContextMenuDataD2Ev@Qt_5 5.7.1
 _ZN25QWebEngineContextMenuDataaSERKN15QtWebEngineCore24WebEngineContextMenuDataE@Qt_5 5.7.1
 _ZN25QWebEngineContextMenuDataaSERKS_@Qt_5 5.7.1
 _ZN26QWebEngineCertificateErrorC1Ei4QUrlb7QString@Qt_5 5.7.1
 _ZN26QWebEngineCertificateErrorC2Ei4QUrlb7QString@Qt_5 5.7.1
 _ZN26QWebEngineCertificateErrorD1Ev@Qt_5 5.7.1
 _ZN26QWebEngineCertificateErrorD2Ev@Qt_5 5.7.1
 _ZN26QWebEngineScriptCollection5clearEv@Qt_5 5.7.1
 _ZN26QWebEngineScriptCollection6insertERK16QWebEngineScript@Qt_5 5.7.1
 _ZN26QWebEngineScriptCollection6insertERK5QListI16QWebEngineScriptE@Qt_5 5.7.1
 _ZN26QWebEngineScriptCollection6removeERK16QWebEngineScript@Qt_5 5.7.1
 _ZN26QWebEngineScriptCollectionC1EP33QWebEngineScriptCollectionPrivate@Qt_5 5.7.1
 _ZN26QWebEngineScriptCollectionC2EP33QWebEngineScriptCollectionPrivate@Qt_5 5.7.1
 _ZN26QWebEngineScriptCollectionD1Ev@Qt_5 5.7.1
 _ZN26QWebEngineScriptCollectionD2Ev@Qt_5 5.7.1
 _ZN27QWebEngineFullScreenRequest16staticMetaObjectE@Qt_5 5.7.1
 _ZN27QWebEngineFullScreenRequest6acceptEv@Qt_5 5.7.1
 _ZN27QWebEngineFullScreenRequest6rejectEv@Qt_5 5.7.1
 _ZN27QWebEngineFullScreenRequestC1EP14QWebEnginePageRK4QUrlb@Qt_5 5.7.1
 _ZN27QWebEngineFullScreenRequestC2EP14QWebEnginePageRK4QUrlb@Qt_5 5.7.1
 _ZNK14QWebEnginePage10metaObjectEv@Qt_5 5.7.1
 _ZNK14QWebEnginePage10webChannelEv@Qt_5 5.7.1
 _ZNK14QWebEnginePage10zoomFactorEv@Qt_5 5.7.1
 _ZNK14QWebEnginePage11toPlainTextERK18QWebEngineCallbackIRK7QStringE@Qt_5 5.7.1
 _ZNK14QWebEnginePage12contentsSizeEv@Qt_5 5.7.1
 _ZNK14QWebEnginePage12hasSelectionEv@Qt_5 5.7.1
 _ZNK14QWebEnginePage12isAudioMutedEv@Qt_5 5.7.1
 _ZNK14QWebEnginePage12requestedUrlEv@Qt_5 5.7.1
 _ZNK14QWebEnginePage12selectedTextEv@Qt_5 5.7.1
 _ZNK14QWebEnginePage14scrollPositionEv@Qt_5 5.7.1
 _ZNK14QWebEnginePage15backgroundColorEv@Qt_5 5.7.1
 _ZNK14QWebEnginePage15contextMenuDataEv@Qt_5 5.7.1
 _ZNK14QWebEnginePage15recentlyAudibleEv@Qt_5 5.7.1
 _ZNK14QWebEnginePage3urlEv@Qt_5 5.7.1
 _ZNK14QWebEnginePage4iconEv@Qt_5 5.7.1
 _ZNK14QWebEnginePage4saveERK7QStringN22QWebEngineDownloadItem14SavePageFormatE@Qt_5 5.9.0
 _ZNK14QWebEnginePage4viewEv@Qt_5 5.7.1
 _ZNK14QWebEnginePage5titleEv@Qt_5 5.7.1
 _ZNK14QWebEnginePage6actionENS_9WebActionE@Qt_5 5.7.1
 _ZNK14QWebEnginePage6toHtmlERK18QWebEngineCallbackIRK7QStringE@Qt_5 5.7.1
 _ZNK14QWebEnginePage7historyEv@Qt_5 5.7.1
 _ZNK14QWebEnginePage7iconUrlEv@Qt_5 5.7.1
 _ZNK14QWebEnginePage7profileEv@Qt_5 5.7.1
 _ZNK14QWebEnginePage8settingsEv@Qt_5 5.7.1
 _ZNK14QWebEngineView10metaObjectEv@Qt_5 5.7.1
 _ZNK14QWebEngineView10pageActionEN14QWebEnginePage9WebActionE@Qt_5 5.7.1
 _ZNK14QWebEngineView10zoomFactorEv@Qt_5 5.7.1
 _ZNK14QWebEngineView12hasSelectionEv@Qt_5 5.7.1
 _ZNK14QWebEngineView12selectedTextEv@Qt_5 5.7.1
 _ZNK14QWebEngineView3urlEv@Qt_5 5.7.1
 _ZNK14QWebEngineView4iconEv@Qt_5 5.7.1
 _ZNK14QWebEngineView4pageEv@Qt_5 5.7.1
 _ZNK14QWebEngineView5titleEv@Qt_5 5.7.1
 _ZNK14QWebEngineView7historyEv@Qt_5 5.7.1
 _ZNK14QWebEngineView7iconUrlEv@Qt_5 5.7.1
 _ZNK14QWebEngineView8settingsEv@Qt_5 5.7.1
 _ZNK14QWebEngineView8sizeHintEv@Qt_5 5.7.1
 _ZNK16QWebEngineScript10sourceCodeEv@Qt_5 5.7.1
 _ZNK16QWebEngineScript14injectionPointEv@Qt_5 5.7.1
 _ZNK16QWebEngineScript15runsOnSubFramesEv@Qt_5 5.7.1
 _ZNK16QWebEngineScript4nameEv@Qt_5 5.7.1
 _ZNK16QWebEngineScript6isNullEv@Qt_5 5.7.1
 _ZNK16QWebEngineScript7worldIdEv@Qt_5 5.7.1
 _ZNK16QWebEngineScripteqERKS_@Qt_5 5.7.1
 _ZNK17QWebEngineHistory11currentItemEv@Qt_5 5.7.1
 _ZNK17QWebEngineHistory11forwardItemEv@Qt_5 5.7.1
 _ZNK17QWebEngineHistory12canGoForwardEv@Qt_5 5.7.1
 _ZNK17QWebEngineHistory12forwardItemsEi@Qt_5 5.7.1
 _ZNK17QWebEngineHistory16currentItemIndexEv@Qt_5 5.7.1
 _ZNK17QWebEngineHistory5countEv@Qt_5 5.7.1
 _ZNK17QWebEngineHistory5itemsEv@Qt_5 5.7.1
 _ZNK17QWebEngineHistory6itemAtEi@Qt_5 5.7.1
 _ZNK17QWebEngineHistory8backItemEv@Qt_5 5.7.1
 _ZNK17QWebEngineHistory9backItemsEi@Qt_5 5.7.1
 _ZNK17QWebEngineHistory9canGoBackEv@Qt_5 5.7.1
 _ZNK17QWebEngineProfile10metaObjectEv@Qt_5 5.7.1
 _ZNK17QWebEngineProfile11storageNameEv@Qt_5 5.7.1
 _ZNK17QWebEngineProfile13httpCacheTypeEv@Qt_5 5.7.1
 _ZNK17QWebEngineProfile13httpUserAgentEv@Qt_5 5.7.1
 _ZNK17QWebEngineProfile14isOffTheRecordEv@Qt_5 5.7.1
 _ZNK17QWebEngineProfile16urlSchemeHandlerERK10QByteArray@Qt_5 5.7.1
 _ZNK17QWebEngineProfile18httpAcceptLanguageEv@Qt_5 5.7.1
 _ZNK17QWebEngineProfile19isSpellCheckEnabledEv@Qt_5 5.9.0
 _ZNK17QWebEngineProfile19spellCheckLanguagesEv@Qt_5 5.9.0
 _ZNK17QWebEngineProfile20httpCacheMaximumSizeEv@Qt_5 5.7.1
 _ZNK17QWebEngineProfile21persistentStoragePathEv@Qt_5 5.7.1
 _ZNK17QWebEngineProfile23persistentCookiesPolicyEv@Qt_5 5.7.1
 _ZNK17QWebEngineProfile23visitedLinksContainsUrlERK4QUrl@Qt_5 5.7.1
 _ZNK17QWebEngineProfile7scriptsEv@Qt_5 5.7.1
 _ZNK17QWebEngineProfile8settingsEv@Qt_5 5.7.1
 _ZNK17QWebEngineProfile9cachePathEv@Qt_5 5.7.1
 _ZNK18QWebEngineSettings10fontFamilyENS_10FontFamilyE@Qt_5 5.7.1
 _ZNK18QWebEngineSettings13testAttributeENS_12WebAttributeE@Qt_5 5.7.1
 _ZNK18QWebEngineSettings19defaultTextEncodingEv@Qt_5 5.7.1
 _ZNK18QWebEngineSettings8fontSizeENS_8FontSizeE@Qt_5 5.7.1
 _ZNK21QWebEngineHistoryItem11lastVisitedEv@Qt_5 5.7.1
 _ZNK21QWebEngineHistoryItem11originalUrlEv@Qt_5 5.7.1
 _ZNK21QWebEngineHistoryItem3urlEv@Qt_5 5.7.1
 _ZNK21QWebEngineHistoryItem5titleEv@Qt_5 5.7.1
 _ZNK21QWebEngineHistoryItem7iconUrlEv@Qt_5 5.7.1
 _ZNK21QWebEngineHistoryItem7isValidEv@Qt_5 5.7.1
 _ZNK22QWebEngineDownloadItem10isFinishedEv@Qt_5 5.7.1
 _ZNK22QWebEngineDownloadItem10metaObjectEv@Qt_5 5.7.1
 _ZNK22QWebEngineDownloadItem10totalBytesEv@Qt_5 5.7.1
 _ZNK22QWebEngineDownloadItem13receivedBytesEv@Qt_5 5.7.1
 _ZNK22QWebEngineDownloadItem14savePageFormatEv@Qt_5 5.7.1
 _ZNK22QWebEngineDownloadItem15interruptReasonEv@Qt_5 5.9.0
 _ZNK22QWebEngineDownloadItem21interruptReasonStringEv@Qt_5 5.9.0
 _ZNK22QWebEngineDownloadItem2idEv@Qt_5 5.7.1
 _ZNK22QWebEngineDownloadItem3urlEv@Qt_5 5.7.1
 _ZNK22QWebEngineDownloadItem4pathEv@Qt_5 5.7.1
 _ZNK22QWebEngineDownloadItem4typeEv@Qt_5 5.9.0
 _ZNK22QWebEngineDownloadItem5stateEv@Qt_5 5.7.1
 _ZNK22QWebEngineDownloadItem8isPausedEv@Qt_5 5.10.1
 _ZNK22QWebEngineDownloadItem8mimeTypeEv@Qt_5 5.7.1
 _ZNK25QWebEngineContextMenuData12selectedTextEv@Qt_5 5.7.1
 _ZNK25QWebEngineContextMenuData14misspelledWordEv@Qt_5 5.9.0
 _ZNK25QWebEngineContextMenuData17isContentEditableEv@Qt_5 5.7.1
 _ZNK25QWebEngineContextMenuData23spellCheckerSuggestionsEv@Qt_5 5.9.0
 _ZNK25QWebEngineContextMenuData7isValidEv@Qt_5 5.7.1
 _ZNK25QWebEngineContextMenuData7linkUrlEv@Qt_5 5.7.1
 _ZNK25QWebEngineContextMenuData8linkTextEv@Qt_5 5.7.1
 _ZNK25QWebEngineContextMenuData8mediaUrlEv@Qt_5 5.7.1
 _ZNK25QWebEngineContextMenuData8positionEv@Qt_5 5.7.1
 _ZNK25QWebEngineContextMenuData9mediaTypeEv@Qt_5 5.7.1
 _ZNK26QWebEngineCertificateError13isOverridableEv@Qt_5 5.7.1
 _ZNK26QWebEngineCertificateError16errorDescriptionEv@Qt_5 5.7.1
 _ZNK26QWebEngineCertificateError3urlEv@Qt_5 5.7.1
 _ZNK26QWebEngineCertificateError5errorEv@Qt_5 5.7.1
 _ZNK26QWebEngineScriptCollection10findScriptERK7QString@Qt_5 5.7.1
 _ZNK26QWebEngineScriptCollection11findScriptsERK7QString@Qt_5 5.7.1
 _ZNK26QWebEngineScriptCollection5countEv@Qt_5 5.7.1
 _ZNK26QWebEngineScriptCollection6toListEv@Qt_5 5.7.1
 _ZNK26QWebEngineScriptCollection8containsERK16QWebEngineScript@Qt_5 5.7.1
 _ZTI14QWebEnginePage@Qt_5 5.7.1
 _ZTI14QWebEngineView@Qt_5 5.7.1
 _ZTI17QWebEngineProfile@Qt_5 5.7.1
 _ZTI22QWebEngineDownloadItem@Qt_5 5.7.1
 _ZTIN15QtWebEngineCore24WebContentsAdapterClientE@Qt_5 5.7.1
 _ZTIN15QtWebEngineCore27BrowserContextAdapterClientE@Qt_5 5.7.1
 _ZTIN15QtWebEngineCore30RenderWidgetHostViewQtDelegateE@Qt_5 5.7.1
 _ZTS14QWebEnginePage@Qt_5 5.7.1
 _ZTS14QWebEngineView@Qt_5 5.7.1
 _ZTS17QWebEngineProfile@Qt_5 5.7.1
 _ZTS22QWebEngineDownloadItem@Qt_5 5.7.1
 _ZTSN15QtWebEngineCore24WebContentsAdapterClientE@Qt_5 5.7.1
 _ZTSN15QtWebEngineCore27BrowserContextAdapterClientE@Qt_5 5.7.1
 _ZTSN15QtWebEngineCore30RenderWidgetHostViewQtDelegateE@Qt_5 5.7.1
 _ZTV14QWebEnginePage@Qt_5 5.7.1
 _ZTV14QWebEngineView@Qt_5 5.7.1
 _ZTV17QWebEngineProfile@Qt_5 5.7.1
 _ZTV22QWebEngineDownloadItem@Qt_5 5.7.1
 _Zls6QDebugRK16QWebEngineScript@Qt_5 5.7.1
 _ZlsR11QDataStreamRK17QWebEngineHistory@Qt_5 5.7.1
 _ZrsR11QDataStreamR17QWebEngineHistory@Qt_5 5.7.1
 (c++)"non-virtual thunk to QWebEngineView::~QWebEngineView()@Qt_5" 5.7.1
